EXPORTS
	?CallWaitingNoteL@CPhoneState@@IAEXH@Z @ 1 NONAME ; void CPhoneState::CallWaitingNoteL(int)
	?HandleKeyMessageL@CPhoneStateIncoming@@UAEXW4TPhoneKeyEventMessages@MPhoneKeyEvents@@W4TKeyCode@@@Z @ 2 NONAME ; void CPhoneStateIncoming::HandleKeyMessageL(enum MPhoneKeyEvents::TPhoneKeyEventMessages, enum TKeyCode)
	?EnableCallUIL@CPhoneState@@QAEXXZ @ 3 NONAME ; void CPhoneState::EnableCallUIL(void)
	?TopAppIsDisplayedL@CPhoneState@@IBEHXZ @ 4 NONAME ; int CPhoneState::TopAppIsDisplayedL(void) const
	?HandleKeyMessageL@CPhoneStateCallSetup@@UAEXW4TPhoneKeyEventMessages@MPhoneKeyEvents@@W4TKeyCode@@@Z @ 5 NONAME ; void CPhoneStateCallSetup::HandleKeyMessageL(enum MPhoneKeyEvents::TPhoneKeyEventMessages, enum TKeyCode)
	?CallFetchedNumberL@CPhoneStateInCall@@MAEXABVTDesC16@@@Z @ 6 NONAME ; void CPhoneStateInCall::CallFetchedNumberL(class TDesC16 const &)
	?SetCbaL@CPhoneCbaManager@@QAEXH@Z @ 7 NONAME ; void CPhoneCbaManager::SetCbaL(int)
	?HandlePhoneStartupL@CPhoneState@@UAEXXZ @ 8 NONAME ; void CPhoneState::HandlePhoneStartupL(void)
	?HandlePhoneFocusLostEventL@CPhoneStateIdle@@UAEXXZ @ 9 NONAME ; void CPhoneStateIdle::HandlePhoneFocusLostEventL(void)
	?HandleIdleL@CPhoneStateInCall@@IAEXH@Z @ 10 NONAME ; void CPhoneStateInCall::HandleIdleL(int)
	?ShowQueryL@CPhoneState@@IAEXH@Z @ 11 NONAME ; void CPhoneState::ShowQueryL(int)
	?DisplayCallTerminationNoteL@CPhoneState@@IAEXXZ @ 12 NONAME ; void CPhoneState::DisplayCallTerminationNoteL(void)
	??0CPhoneStateInCall@@IAE@PAVMPhoneStateMachine@@PAVMPhoneViewCommandHandle@@PAVMPhoneCustomization@@@Z @ 13 NONAME ; CPhoneStateInCall::CPhoneStateInCall(class MPhoneStateMachine *, class MPhoneViewCommandHandle *, class MPhoneCustomization *)
	?PhoneEngine@CPhoneStateMachine@@UAEPAVMPEPhoneModel@@XZ @ 14 NONAME ; class MPEPhoneModel * CPhoneStateMachine::PhoneEngine(void)
	??1CPhoneStateCallSetup@@UAE@XZ @ 15 NONAME ; CPhoneStateCallSetup::~CPhoneStateCallSetup(void)
	?SetToolbarButtonLoudspeakerEnabled@CPhoneState@@IAEXXZ @ 16 NONAME ; void CPhoneState::SetToolbarButtonLoudspeakerEnabled(void)
	?Instance@CPhoneStateHandle@@SAPAV1@XZ @ 17 NONAME ; class CPhoneStateHandle * CPhoneStateHandle::Instance(void)
	?HandleNumberEntryClearedL@CPhoneStateIdle@@MAEXXZ @ 18 NONAME ; void CPhoneStateIdle::HandleNumberEntryClearedL(void)
	?HandleCommandL@CPhoneState@@UAEHH@Z @ 19 NONAME ; int CPhoneState::HandleCommandL(int)
	?IsNumberEntryVisibleL@CPhoneState@@QAEHXZ @ 20 NONAME ; int CPhoneState::IsNumberEntryVisibleL(void)
	?DialL@CPhoneStateIdle@@MAEXABVTDesC16@@W4TPhoneNumberType@1@W4TDialInitiationMethod@1@@Z @ 21 NONAME ; void CPhoneStateIdle::DialL(class TDesC16 const &, enum CPhoneStateIdle::TPhoneNumberType, enum CPhoneStateIdle::TDialInitiationMethod)
	?RetainPreviousKeylockStateL@CPhoneState@@QAEXXZ @ 22 NONAME ; void CPhoneState::RetainPreviousKeylockStateL(void)
	?HandlePhoneEngineMessageL@CPhoneStateIdle@@UAEXHH@Z @ 23 NONAME ; void CPhoneStateIdle::HandlePhoneEngineMessageL(int, int)
	?HandleDialingL@CPhoneStateIdle@@MAEXH@Z @ 24 NONAME ; void CPhoneStateIdle::HandleDialingL(int)
	?ChangeState@CPhoneStateMachine@@UAEXH@Z @ 25 NONAME ; void CPhoneStateMachine::ChangeState(int)
	?IsSimStateNotPresentWithSecurityModeEnabled@CPhoneState@@IAEHXZ @ 26 NONAME ; int CPhoneState::IsSimStateNotPresentWithSecurityModeEnabled(void)
	?HandlePhoneEngineMessageL@CPhoneState@@UAEXHH@Z @ 27 NONAME ; void CPhoneState::HandlePhoneEngineMessageL(int, int)
	?HandleNumberEntryClearedL@CPhoneStateIncoming@@UAEXXZ @ 28 NONAME ; void CPhoneStateIncoming::HandleNumberEntryClearedL(void)
	?HandleKeyEventL@CPhoneUIController@@UAE?AW4TKeyResponse@@ABUTKeyEvent@@W4TEventCode@@@Z @ 29 NONAME ; enum TKeyResponse CPhoneUIController::HandleKeyEventL(struct TKeyEvent const &, enum TEventCode)
	?HandleRemConCommandL@CPhoneStateIdle@@MAEHW4TRemConCoreApiOperationId@@W4TRemConCoreApiButtonAction@@@Z @ 30 NONAME ; int CPhoneStateIdle::HandleRemConCommandL(enum TRemConCoreApiOperationId, enum TRemConCoreApiButtonAction)
	?HandleAudioPlayStoppedL@CPhoneStateIncoming@@MAEXXZ @ 31 NONAME ; void CPhoneStateIncoming::HandleAudioPlayStoppedL(void)
	?HandleCenRepChangeL@CPhoneState@@UAEXABVTUid@@I@Z @ 32 NONAME ; void CPhoneState::HandleCenRepChangeL(class TUid const &, unsigned int)
	?ShowNumberBusyNoteL@CPhoneState@@IAEXXZ @ 33 NONAME ; void CPhoneState::ShowNumberBusyNoteL(void)
	?DisconnectCallL@CPhoneState@@IAEHXZ @ 34 NONAME ; int CPhoneState::DisconnectCallL(void)
	?HandleNumberEntryClearedL@CPhoneStateCallSetup@@MAEXXZ @ 35 NONAME ; void CPhoneStateCallSetup::HandleNumberEntryClearedL(void)
	?HandleIdleForegroundEventL@CPhoneStateIdle@@UAEXXZ @ 36 NONAME ; void CPhoneStateIdle::HandleIdleForegroundEventL(void)
	?HandleDisconnectingL@CPhoneState@@IAEXH@Z @ 37 NONAME ; void CPhoneState::HandleDisconnectingL(int)
	?HandleAudioMuteChangedL@CPhoneState@@IAEXXZ @ 38 NONAME ; void CPhoneState::HandleAudioMuteChangedL(void)
	?HandleKeyLockEnabled@CPhoneState@@UAEXH@Z @ 39 NONAME ; void CPhoneState::HandleKeyLockEnabled(int)
	?HandleCommandL@CPhoneStateIncoming@@UAEHH@Z @ 40 NONAME ; int CPhoneStateIncoming::HandleCommandL(int)
	?UpdateSingleActiveCallL@CPhoneState@@IAEXH@Z @ 41 NONAME ; void CPhoneState::UpdateSingleActiveCallL(int)
	?SimState@CPhoneState@@IBE?AW4TPESimState@@XZ @ 42 NONAME ; enum TPESimState CPhoneState::SimState(void) const
	?HandleKeyEventL@CPhoneStateCallSetup@@UAEXABUTKeyEvent@@W4TEventCode@@@Z @ 43 NONAME ; void CPhoneStateCallSetup::HandleKeyEventL(struct TKeyEvent const &, enum TEventCode)
	?SetupIdleScreenInBackgroundL@CPhoneState@@IAEXXZ @ 44 NONAME ; void CPhoneState::SetupIdleScreenInBackgroundL(void)
	?CompleteSatRequestL@CPhoneState@@IAEXH@Z @ 45 NONAME ; void CPhoneState::CompleteSatRequestL(int)
	?NewL@CPhoneStateStartup@@SAPAV1@PAVMPhoneStateMachine@@PAVMPhoneViewCommandHandle@@PAVMPhoneCustomization@@@Z @ 46 NONAME ; class CPhoneStateStartup * CPhoneStateStartup::NewL(class MPhoneStateMachine *, class MPhoneViewCommandHandle *, class MPhoneCustomization *)
	?NeedToSendToBackgroundL@CPhoneState@@IBEHXZ @ 47 NONAME ; int CPhoneState::NeedToSendToBackgroundL(void) const
	?SetCallHeaderTextsForCallComingInL@CPhoneState@@IAEXHHPAVTPhoneCmdParamCallHeaderData@@@Z @ 48 NONAME ; void CPhoneState::SetCallHeaderTextsForCallComingInL(int, int, class TPhoneCmdParamCallHeaderData *)
	?IsSimOk@CPhoneState@@QAEHXZ @ 49 NONAME ; int CPhoneState::IsSimOk(void)
	?ClearNumberEntryContentCache@CPhoneState@@IAEXXZ @ 50 NONAME ; void CPhoneState::ClearNumberEntryContentCache(void)
	?HandleCommandL@CPhoneStateIdle@@UAEHH@Z @ 51 NONAME ; int CPhoneStateIdle::HandleCommandL(int)
	?ViewCommandHandle@CPhoneStateHandle@@QAEPAVMPhoneViewCommandHandle@@XZ @ 52 NONAME ; class MPhoneViewCommandHandle * CPhoneStateHandle::ViewCommandHandle(void)
	?DialMultimediaCallL@CPhoneStateIdle@@IAEXXZ @ 53 NONAME ; void CPhoneStateIdle::DialMultimediaCallL(void)
	?DisconnectOutgoingCallL@CPhoneStateInCall@@IAEXXZ @ 54 NONAME ; void CPhoneStateInCall::DisconnectOutgoingCallL(void)
	?IsKeyLockOn@CPhoneState@@MBEHXZ @ 55 NONAME ; int CPhoneState::IsKeyLockOn(void) const
	??1CPhoneStateInCall@@UAE@XZ @ 56 NONAME ; CPhoneStateInCall::~CPhoneStateInCall(void)
	?SetNumberEntryVisibilityL@CPhoneState@@IAEXH@Z @ 57 NONAME ; void CPhoneState::SetNumberEntryVisibilityL(int)
	?HandleError@CPhoneUIController@@UAEXABUTPEErrorInfo@@@Z @ 58 NONAME ; void CPhoneUIController::HandleError(struct TPEErrorInfo const &)
	?ConstructL@CPhoneStateInCall@@MAEXXZ @ 59 NONAME ; void CPhoneStateInCall::ConstructL(void)
	?IsVideoCallRingingL@CPhoneStateInCall@@MAEHXZ @ 60 NONAME ; int CPhoneStateInCall::IsVideoCallRingingL(void)
	?HandlePhoneForegroundEventL@CPhoneStateIdle@@UAEXXZ @ 61 NONAME ; void CPhoneStateIdle::HandlePhoneForegroundEventL(void)
	?HandleHoldSwitchL@CPhoneState@@QAEXXZ @ 62 NONAME ; void CPhoneState::HandleHoldSwitchL(void)
	?HandleDtmfKeyToneL@CPhoneStateStartup@@EAEXABUTKeyEvent@@W4TEventCode@@@Z @ 63 NONAME ; void CPhoneStateStartup::HandleDtmfKeyToneL(struct TKeyEvent const &, enum TEventCode)
	?ShowTextQueryL@CPhoneState@@IAEXHHHPAVTDes16@@H@Z @ 64 NONAME ; void CPhoneState::ShowTextQueryL(int, int, int, class TDes16 *, int)
	?DialMultimediaCallL@CPhoneState@@IAEXXZ @ 65 NONAME ; void CPhoneState::DialMultimediaCallL(void)
	?NewL@CPhoneUIController@@SAPAV1@PAVMPhoneViewCommandHandle@@@Z @ 66 NONAME ; class CPhoneUIController * CPhoneUIController::NewL(class MPhoneViewCommandHandle *)
	?CheckDisableHWKeysAndCallUIL@CPhoneState@@QAEXXZ @ 67 NONAME ; void CPhoneState::CheckDisableHWKeysAndCallUIL(void)
	?HandleErrorL@CPhoneState@@UAEXABUTPEErrorInfo@@@Z @ 68 NONAME ; void CPhoneState::HandleErrorL(struct TPEErrorInfo const &)
	?HandleCommandL@CPhoneStateCallSetup@@UAEHH@Z @ 69 NONAME ; int CPhoneStateCallSetup::HandleCommandL(int)
	??1CPhoneUIController@@UAE@XZ @ 70 NONAME ; CPhoneUIController::~CPhoneUIController(void)
	?HandleAudioOutputChangedL@CPhoneState@@IAEXXZ @ 71 NONAME ; void CPhoneState::HandleAudioOutputChangedL(void)
	?HandleKeyEventL@CPhoneState@@UAEXABUTKeyEvent@@W4TEventCode@@@Z @ 72 NONAME ; void CPhoneState::HandleKeyEventL(struct TKeyEvent const &, enum TEventCode)
	?UpdateIncomingCbaL@CPhoneCbaManager@@QAEXH@Z @ 73 NONAME ; void CPhoneCbaManager::UpdateIncomingCbaL(int)
	?SendGlobalErrorNoteL@CPhoneState@@QAEXHH@Z @ 74 NONAME ; void CPhoneState::SendGlobalErrorNoteL(int, int)
	?CreatePhoneEngineL@CPhoneStateMachine@@UAEPAVMPEPhoneModel@@AAVMEngineMonitor@@@Z @ 75 NONAME ; class MPEPhoneModel * CPhoneStateMachine::CreatePhoneEngineL(class MEngineMonitor &)
	?ConstructL@CPhoneStateIncoming@@MAEXXZ @ 76 NONAME ; void CPhoneStateIncoming::ConstructL(void)
	?SetTouchPaneButtons@CPhoneState@@IAEXH@Z @ 77 NONAME ; void CPhoneState::SetTouchPaneButtons(int)
	?HandleIdleForegroundEventL@CPhoneStateStartup@@UAEXXZ @ 78 NONAME ; void CPhoneStateStartup::HandleIdleForegroundEventL(void)
	?CallFromNumberEntryL@CPhoneState@@IAEXXZ @ 79 NONAME ; void CPhoneState::CallFromNumberEntryL(void)
	?UpdateCbaL@CPhoneCbaManager@@QAEXH@Z @ 80 NONAME ; void CPhoneCbaManager::UpdateCbaL(int)
	?IsVideoCall@CPhoneState@@IAEHH@Z @ 81 NONAME ; int CPhoneState::IsVideoCall(int)
	?IsSwivelClosed@CPhoneState@@QBEHXZ @ 82 NONAME ; int CPhoneState::IsSwivelClosed(void) const
	?HandlePhoneForegroundEventL@CPhoneUIController@@UAEXXZ @ 83 NONAME ; void CPhoneUIController::HandlePhoneForegroundEventL(void)
	?IsAutoLockOn@CPhoneState@@UBEHXZ @ 84 NONAME ; int CPhoneState::IsAutoLockOn(void) const
	?UpdateCbaL@CPhoneStateCallSetup@@MAEXH@Z @ 85 NONAME ; void CPhoneStateCallSetup::UpdateCbaL(int)
	?HandleKeyEventL@CPhoneStateIdle@@UAEXABUTKeyEvent@@W4TEventCode@@@Z @ 86 NONAME ; void CPhoneStateIdle::HandleKeyEventL(struct TKeyEvent const &, enum TEventCode)
	?SendGlobalWarningNoteL@CPhoneState@@IAEXHH@Z @ 87 NONAME ; void CPhoneState::SendGlobalWarningNoteL(int, int)
	?IsNumberEntryContentStored@CPhoneState@@IAEHXZ @ 88 NONAME ; int CPhoneState::IsNumberEntryContentStored(void)
	?IsVideoCallActiveL@CPhoneStateInCall@@MAEHXZ @ 89 NONAME ; int CPhoneStateInCall::IsVideoCallActiveL(void)
	?DialVoiceCallL@CPhoneState@@IAEXXZ @ 90 NONAME ; void CPhoneState::DialVoiceCallL(void)
	?HandlePhoneStartupL@CPhoneStateStartup@@UAEXXZ @ 91 NONAME ; void CPhoneStateStartup::HandlePhoneStartupL(void)
	?StateMachine@CPhoneStateHandle@@QAEPAVMPhoneStateMachine@@XZ @ 92 NONAME ; class MPhoneStateMachine * CPhoneStateHandle::StateMachine(void)
	?EndUiUpdate@CPhoneState@@IAEXXZ @ 93 NONAME ; void CPhoneState::EndUiUpdate(void)
	?UpdateInCallCbaL@CPhoneStateInCall@@MAEXXZ @ 94 NONAME ; void CPhoneStateInCall::UpdateInCallCbaL(void)
	?HandleKeyMessageL@CPhoneStateInCall@@UAEXW4TPhoneKeyEventMessages@MPhoneKeyEvents@@W4TKeyCode@@@Z @ 95 NONAME ; void CPhoneStateInCall::HandleKeyMessageL(enum MPhoneKeyEvents::TPhoneKeyEventMessages, enum TKeyCode)
	?SetRingingTonePlaybackL@CPhoneState@@IAEXH@Z @ 96 NONAME ; void CPhoneState::SetRingingTonePlaybackL(int)
	?ProcessCommandL@CPhoneState@@UAEHH@Z @ 97 NONAME ; int CPhoneState::ProcessCommandL(int)
	?BeginUiUpdateLC@CPhoneState@@IAEXXZ @ 98 NONAME ; void CPhoneState::BeginUiUpdateLC(void)
	?DecreaseAudioVolumeL@CPhoneState@@IAEXXZ @ 99 NONAME ; void CPhoneState::DecreaseAudioVolumeL(void)
	?PhoneEngineInfo@CPhoneStateMachine@@UAEPAVMPEEngineInfo@@XZ @ 100 NONAME ; class MPEEngineInfo * CPhoneStateMachine::PhoneEngineInfo(void)
	?HandleSystemEventL@CPhoneUIController@@UAEXABVTWsEvent@@@Z @ 101 NONAME ; void CPhoneUIController::HandleSystemEventL(class TWsEvent const &)
	??0CPhoneStateStartup@@IAE@PAVMPhoneStateMachine@@PAVMPhoneViewCommandHandle@@PAVMPhoneCustomization@@@Z @ 102 NONAME ; CPhoneStateStartup::CPhoneStateStartup(class MPhoneStateMachine *, class MPhoneViewCommandHandle *, class MPhoneCustomization *)
	?GetRemoteInfoDataL@CPhoneState@@IAEXHAAVTDes16@@@Z @ 103 NONAME ; void CPhoneState::GetRemoteInfoDataL(int, class TDes16 &)
	?SetDivertIndication@CPhoneState@@UAEXH@Z @ 104 NONAME ; void CPhoneState::SetDivertIndication(int)
	?UpdateCbaL@CPhoneStateInCall@@MAEXH@Z @ 105 NONAME ; void CPhoneStateInCall::UpdateCbaL(int)
	?SetCallId@CPhoneStateMachine@@UAEXH@Z @ 106 NONAME ; void CPhoneStateMachine::SetCallId(int)
	?ProcessCommandL@CPhoneUIController@@UAEHH@Z @ 107 NONAME ; int CPhoneUIController::ProcessCommandL(int)
	?DisplayHeaderForCallComingInL@CPhoneState@@IAEXHH@Z @ 108 NONAME ; void CPhoneState::DisplayHeaderForCallComingInL(int, int)
	??0CPhoneStateIdle@@IAE@PAVMPhoneStateMachine@@PAVMPhoneViewCommandHandle@@PAVMPhoneCustomization@@@Z @ 109 NONAME ; CPhoneStateIdle::CPhoneStateIdle(class MPhoneStateMachine *, class MPhoneViewCommandHandle *, class MPhoneCustomization *)
	?SendPhoneEngineMessage@CPhoneStateMachine@@UAEXH@Z @ 110 NONAME ; void CPhoneStateMachine::SendPhoneEngineMessage(int)
	??0CPhoneStateCallSetup@@IAE@PAVMPhoneStateMachine@@PAVMPhoneViewCommandHandle@@PAVMPhoneCustomization@@@Z @ 111 NONAME ; CPhoneStateCallSetup::CPhoneStateCallSetup(class MPhoneStateMachine *, class MPhoneViewCommandHandle *, class MPhoneCustomization *)
	??0CPhoneState@@QAE@PAVMPhoneStateMachine@@PAVMPhoneViewCommandHandle@@PAVMPhoneCustomization@@@Z @ 112 NONAME ; CPhoneState::CPhoneState(class MPhoneStateMachine *, class MPhoneViewCommandHandle *, class MPhoneCustomization *)
	?HandleDtmfKeyToneL@CPhoneState@@UAEXABUTKeyEvent@@W4TEventCode@@@Z @ 113 NONAME ; void CPhoneState::HandleDtmfKeyToneL(struct TKeyEvent const &, enum TEventCode)
	?HandleKeyMessageL@CPhoneStateIdle@@UAEXW4TPhoneKeyEventMessages@MPhoneKeyEvents@@W4TKeyCode@@@Z @ 114 NONAME ; void CPhoneStateIdle::HandleKeyMessageL(enum MPhoneKeyEvents::TPhoneKeyEventMessages, enum TKeyCode)
	?HandleForegroundEventL@CPhoneUIController@@UAEXH@Z @ 115 NONAME ; void CPhoneUIController::HandleForegroundEventL(int)
	?HandleCommandL@CPhoneUIController@@UAEHH@Z @ 116 NONAME ; int CPhoneUIController::HandleCommandL(int)
	?HandleSendCommandL@CPhoneStateIdle@@MAEXXZ @ 117 NONAME ; void CPhoneStateIdle::HandleSendCommandL(void)
	?DisableHWKeysL@CPhoneState@@QAEXXZ @ 118 NONAME ; void CPhoneState::DisableHWKeysL(void)
	?DisplayHeaderForOutgoingCallL@CPhoneState@@IAEXH@Z @ 119 NONAME ; void CPhoneState::DisplayHeaderForOutgoingCallL(int)
	?GetBlockedKeyList@CPhoneState@@UBEABV?$RArray@H@@XZ @ 120 NONAME ; class RArray<int> const & CPhoneState::GetBlockedKeyList(void) const
	?HandlePhoneEngineMessageL@CPhoneStateInCall@@UAEXHH@Z @ 121 NONAME ; void CPhoneStateInCall::HandlePhoneEngineMessageL(int, int)
	?IsNumberEntryUsedL@CPhoneState@@UAEHXZ @ 122 NONAME ; int CPhoneState::IsNumberEntryUsedL(void)
	?PhoneStorage@CPhoneStateMachine@@UAEPAVMPhoneStorage@@XZ @ 123 NONAME ; class MPhoneStorage * CPhoneStateMachine::PhoneStorage(void)
	??1CPhoneState@@UAE@XZ @ 124 NONAME ; CPhoneState::~CPhoneState(void)
	?HandlePhoneEngineMessageL@CPhoneStateCallSetup@@UAEXHH@Z @ 125 NONAME ; void CPhoneStateCallSetup::HandlePhoneEngineMessageL(int, int)
	?HandlePhoneFocusLostEventL@CPhoneState@@UAEXXZ @ 126 NONAME ; void CPhoneState::HandlePhoneFocusLostEventL(void)
	??1CPhoneStateMachine@@UAE@XZ @ 127 NONAME ; CPhoneStateMachine::~CPhoneStateMachine(void)
	?HandleIdleForegroundEventL@CPhoneState@@UAEXXZ @ 128 NONAME ; void CPhoneState::HandleIdleForegroundEventL(void)
	?ConstructL@CPhoneStateCallSetup@@MAEXXZ @ 129 NONAME ; void CPhoneStateCallSetup::ConstructL(void)
	?HandleMessage@CPhoneUIController@@UAEXHH@Z @ 130 NONAME ; void CPhoneUIController::HandleMessage(int, int)
	?HandleSystemEventL@CPhoneState@@UAEXABVTWsEvent@@@Z @ 131 NONAME ; void CPhoneState::HandleSystemEventL(class TWsEvent const &)
	?DisplayCallSetupL@CPhoneStateIdle@@IAEXH@Z @ 132 NONAME ; void CPhoneStateIdle::DisplayCallSetupL(int)
	?ConstructL@CPhoneStateStartup@@MAEXXZ @ 133 NONAME ; void CPhoneStateStartup::ConstructL(void)
	?HandleKeyMessageL@CPhoneStateStartup@@UAEXW4TPhoneKeyEventMessages@MPhoneKeyEvents@@W4TKeyCode@@@Z @ 134 NONAME ; void CPhoneStateStartup::HandleKeyMessageL(enum MPhoneKeyEvents::TPhoneKeyEventMessages, enum TKeyCode)
	?ShowNoteL@CPhoneState@@IAEXH@Z @ 135 NONAME ; void CPhoneState::ShowNoteL(int)
	?HandlePropertyChangedL@CPhoneState@@UAEXABVTUid@@IH@Z @ 136 NONAME ; void CPhoneState::HandlePropertyChangedL(class TUid const &, unsigned int, int)
	?IsAnyQueryActiveL@CPhoneState@@QAEHXZ @ 137 NONAME ; int CPhoneState::IsAnyQueryActiveL(void)
	?State@CPhoneStateMachine@@UAEPAVMPhoneState@@XZ @ 138 NONAME ; class MPhoneState * CPhoneStateMachine::State(void)
	?SetHandsfreeModeL@CPhoneState@@IAEXH@Z @ 139 NONAME ; void CPhoneState::SetHandsfreeModeL(int)
	?IsCustomizedDialerVisibleL@CPhoneState@@QBEHXZ @ 140 NONAME ; int CPhoneState::IsCustomizedDialerVisibleL(void) const
	?UpdateInCallCbaL@CPhoneStateCallSetup@@MAEXXZ @ 141 NONAME ; void CPhoneStateCallSetup::UpdateInCallCbaL(void)
	?HandleNumberEntryClearedL@CPhoneStateInCall@@MAEXXZ @ 142 NONAME ; void CPhoneStateInCall::HandleNumberEntryClearedL(void)
	??0CPhoneStateIncoming@@IAE@PAVMPhoneStateMachine@@PAVMPhoneViewCommandHandle@@PAVMPhoneCustomization@@@Z @ 143 NONAME ; CPhoneStateIncoming::CPhoneStateIncoming(class MPhoneStateMachine *, class MPhoneViewCommandHandle *, class MPhoneCustomization *)
	?SendGlobalInfoNoteL@CPhoneState@@QAEXHH@Z @ 144 NONAME ; void CPhoneState::SendGlobalInfoNoteL(int, int)
	??1CPhoneStateIncoming@@UAE@XZ @ 145 NONAME ; CPhoneStateIncoming::~CPhoneStateIncoming(void)
	?HandleKeyLockEnabled@CPhoneUIController@@UAEXH@Z @ 146 NONAME ; void CPhoneUIController::HandleKeyLockEnabled(int)
	?DisableCallUIL@CPhoneState@@QAEXXZ @ 147 NONAME ; void CPhoneState::DisableCallUIL(void)
	?DeleteTouchPaneButtons@CPhoneState@@IAEXXZ @ 148 NONAME ; void CPhoneState::DeleteTouchPaneButtons(void)
	?ProcessCommandL@CPhoneStateIdle@@UAEHH@Z @ 149 NONAME ; int CPhoneStateIdle::ProcessCommandL(int)
	?HandlePhoneEngineMessageL@CPhoneStateStartup@@UAEXHH@Z @ 150 NONAME ; void CPhoneStateStartup::HandlePhoneEngineMessageL(int, int)
	?IsAlphanumericSupportedAndCharInput@CPhoneState@@MAEHABUTKeyEvent@@@Z @ 151 NONAME ; int CPhoneState::IsAlphanumericSupportedAndCharInput(struct TKeyEvent const &)
	?HandleKeyEventL@CPhoneStateIncoming@@UAEXABUTKeyEvent@@W4TEventCode@@@Z @ 152 NONAME ; void CPhoneStateIncoming::HandleKeyEventL(struct TKeyEvent const &, enum TEventCode)
	?HandleKeyEventL@CPhoneStateStartup@@UAEXABUTKeyEvent@@W4TEventCode@@@Z @ 153 NONAME ; void CPhoneStateStartup::HandleKeyEventL(struct TKeyEvent const &, enum TEventCode)
	?HandleNumberEntryClearedL@CPhoneState@@MAEXXZ @ 154 NONAME ; void CPhoneState::HandleNumberEntryClearedL(void)
	?IncreaseAudioVolumeL@CPhoneState@@IAEXXZ @ 155 NONAME ; void CPhoneState::IncreaseAudioVolumeL(void)
	?ConstructL@CPhoneStateIdle@@MAEXXZ @ 156 NONAME ; void CPhoneStateIdle::ConstructL(void)
	?CheckIfShowCallTerminationNote@CPhoneState@@MAEHXZ @ 157 NONAME ; int CPhoneState::CheckIfShowCallTerminationNote(void)
	?DisplayIdleScreenL@CPhoneState@@IAEXXZ @ 158 NONAME ; void CPhoneState::DisplayIdleScreenL(void)
	?StartShowSecurityNoteL@CPhoneState@@IAEXXZ @ 159 NONAME ; void CPhoneState::StartShowSecurityNoteL(void)
	?StoreNumberEntryContentL@CPhoneState@@IAEXXZ @ 160 NONAME ; void CPhoneState::StoreNumberEntryContentL(void)
	?SetBTHandsfreeModeL@CPhoneState@@IAEXH@Z @ 161 NONAME ; void CPhoneState::SetBTHandsfreeModeL(int)
	?HandlePhoneEngineMessageL@CPhoneStateIncoming@@UAEXHH@Z @ 162 NONAME ; void CPhoneStateIncoming::HandlePhoneEngineMessageL(int, int)
	?SetDefaultFlagsL@CPhoneState@@IAEXXZ @ 163 NONAME ; void CPhoneState::SetDefaultFlagsL(void)
	?HandleCommandL@CPhoneStateInCall@@UAEHH@Z @ 164 NONAME ; int CPhoneStateInCall::HandleCommandL(int)
	?DialVoiceCallL@CPhoneStateIdle@@IAEXXZ @ 165 NONAME ; void CPhoneStateIdle::DialVoiceCallL(void)
	?UpdateRemoteInfoDataL@CPhoneState@@IAEXH@Z @ 166 NONAME ; void CPhoneState::UpdateRemoteInfoDataL(int)
	?GetRingingCallL@CPhoneStateInCall@@MAEHXZ @ 167 NONAME ; int CPhoneStateInCall::GetRingingCallL(void)
	?HandleIdleForegroundEventL@CPhoneUIController@@UAEXXZ @ 168 NONAME ; void CPhoneUIController::HandleIdleForegroundEventL(void)
	?SetBackButtonActive@CPhoneState@@IAEXH@Z @ 169 NONAME ; void CPhoneState::SetBackButtonActive(int)
	?HandlePhoneForegroundEventL@CPhoneState@@UAEXXZ @ 170 NONAME ; void CPhoneState::HandlePhoneForegroundEventL(void)
	?HandleForegroundEventL@CPhoneState@@UAEXH@Z @ 171 NONAME ; void CPhoneState::HandleForegroundEventL(int)
	?DisplayIncomingCallL@CPhoneStateIdle@@IAEXH@Z @ 172 NONAME ; void CPhoneStateIdle::DisplayIncomingCallL(int)
	??1CPhoneStateIdle@@UAE@XZ @ 173 NONAME ; CPhoneStateIdle::~CPhoneStateIdle(void)
	?HandleRemConCommandL@CPhoneState@@UAEHW4TRemConCoreApiOperationId@@W4TRemConCoreApiButtonAction@@@Z @ 174 NONAME ; int CPhoneState::HandleRemConCommandL(enum TRemConCoreApiOperationId, enum TRemConCoreApiButtonAction)
	?PhoneNumberFromEntryLC@CPhoneState@@IAEPAVHBufC16@@XZ @ 175 NONAME ; class HBufC16 * CPhoneState::PhoneNumberFromEntryLC(void)
	?BaseConstructL@CPhoneState@@QAEXXZ @ 176 NONAME ; void CPhoneState::BaseConstructL(void)
	?HandlePhoneStartupL@CPhoneUIController@@UAEXXZ @ 177 NONAME ; void CPhoneUIController::HandlePhoneStartupL(void)
	?SetCallHeaderType@CPhoneState@@IAEXH@Z @ 178 NONAME ; void CPhoneState::SetCallHeaderType(int)
	?SetPhoneEngine@CPhoneStateMachine@@UAEXPAVMPEPhoneModel@@@Z @ 179 NONAME ; void CPhoneStateMachine::SetPhoneEngine(class MPEPhoneModel *)
	?HandleKeyLockEnabled@CPhoneStateIncoming@@UAEXH@Z @ 180 NONAME ; void CPhoneStateIncoming::HandleKeyLockEnabled(int)
	?HandlePhoneFocusLostEventL@CPhoneUIController@@UAEXXZ @ 181 NONAME ; void CPhoneUIController::HandlePhoneFocusLostEventL(void)
	??0CPhoneStateMachine@@IAE@PAVMPhoneViewCommandHandle@@@Z @ 182 NONAME ; CPhoneStateMachine::CPhoneStateMachine(class MPhoneViewCommandHandle *)
	??1CPhoneStateStartup@@UAE@XZ @ 183 NONAME ; CPhoneStateStartup::~CPhoneStateStartup(void)
	?HandleKeyMessageL@CPhoneState@@UAEXW4TPhoneKeyEventMessages@MPhoneKeyEvents@@W4TKeyCode@@@Z @ 184 NONAME ; void CPhoneState::HandleKeyMessageL(enum MPhoneKeyEvents::TPhoneKeyEventMessages, enum TKeyCode)
	?OpenSoftRejectMessageEditorL@CPhoneState@@MAEXXZ @ 185 NONAME ; void CPhoneState::OpenSoftRejectMessageEditorL(void)

