EXPORTS
	?qt_metacast@CpPhoneLocalisation@@UAEPAXPBD@Z @ 1 NONAME ; void * CpPhoneLocalisation::qt_metacast(char const *)
	?qt_metacast@CpSettingsWrapper@@UAEPAXPBD@Z @ 2 NONAME ; void * CpSettingsWrapper::qt_metacast(char const *)
	??1CpSettingsWrapper@@UAE@XZ @ 3 NONAME ; CpSettingsWrapper::~CpSettingsWrapper(void)
	?getStaticMetaObject@Tools@@SAABUQMetaObject@@XZ @ 4 NONAME ; struct QMetaObject const & Tools::getStaticMetaObject(void)
	?installTranslator@CpPhoneLocalisation@@QAE_NW4TranslationFileId@1@@Z @ 5 NONAME ; bool CpPhoneLocalisation::installTranslator(enum CpPhoneLocalisation::TranslationFileId)
	?metaObject@CpPhoneLocalisation@@UBEPBUQMetaObject@@XZ @ 6 NONAME ; struct QMetaObject const * CpPhoneLocalisation::metaObject(void) const
	?forbiddenIconSupported@CpSettingsWrapper@@QBE_NXZ @ 7 NONAME ; bool CpSettingsWrapper::forbiddenIconSupported(void) const
	?tr@CpPhoneLocalisation@@SA?AVQString@@PBD0@Z @ 8 NONAME ; class QString CpPhoneLocalisation::tr(char const *, char const *)
	?trUtf8@CpPhoneLocalisation@@SA?AVQString@@PBD0H@Z @ 9 NONAME ; class QString CpPhoneLocalisation::trUtf8(char const *, char const *, int)
	?tr@CpPhoneLocalisation@@SA?AVQString@@PBD0H@Z @ 10 NONAME ; class QString CpPhoneLocalisation::tr(char const *, char const *, int)
	?readPubSubValue@CpSettingsWrapper@@ABE?AVQVariant@@JK@Z @ 11 NONAME ; class QVariant CpSettingsWrapper::readPubSubValue(long, unsigned long) const
	?tr@CpSettingsWrapper@@SA?AVQString@@PBD0H@Z @ 12 NONAME ; class QString CpSettingsWrapper::tr(char const *, char const *, int)
	?isOngoingCall@CpSettingsWrapper@@QBE_NXZ @ 13 NONAME ; bool CpSettingsWrapper::isOngoingCall(void) const
	?metaObject@Tools@@UBEPBUQMetaObject@@XZ @ 14 NONAME ; struct QMetaObject const * Tools::metaObject(void) const
	?readSoftRejectText@CpSettingsWrapper@@QAEXAAVQString@@AA_N@Z @ 15 NONAME ; void CpSettingsWrapper::readSoftRejectText(class QString &, bool &)
	?getStaticMetaObject@CpSettingsWrapper@@SAABUQMetaObject@@XZ @ 16 NONAME ; struct QMetaObject const & CpSettingsWrapper::getStaticMetaObject(void)
	?metaObject@CpSettingsWrapper@@UBEPBUQMetaObject@@XZ @ 17 NONAME ; struct QMetaObject const * CpSettingsWrapper::metaObject(void) const
	?videoSupported@Tools@@SA_NXZ @ 18 NONAME ; bool Tools::videoSupported(void)
	?showCallDuration@CpSettingsWrapper@@QAE_NXZ @ 19 NONAME ; bool CpSettingsWrapper::showCallDuration(void)
	?isPhoneOffline@CpSettingsWrapper@@QBE_NXZ @ 20 NONAME ; bool CpSettingsWrapper::isPhoneOffline(void) const
	?errorCodeTextMapping@Tools@@SA_NHAAVQString@@@Z @ 21 NONAME ; bool Tools::errorCodeTextMapping(int, class QString &)
	?qt_metacall@CpPhoneLocalisation@@UAEHW4Call@QMetaObject@@HPAPAX@Z @ 22 NONAME ; int CpPhoneLocalisation::qt_metacall(enum QMetaObject::Call, int, void * *)
	?writeVtVideoSending@CpSettingsWrapper@@QAEHH@Z @ 23 NONAME ; int CpSettingsWrapper::writeVtVideoSending(int)
	?readCenrepString@CpSettingsWrapper@@ABE?AVQString@@JK@Z @ 24 NONAME ; class QString CpSettingsWrapper::readCenrepString(long, unsigned long) const
	?writeSoftRejectText@CpSettingsWrapper@@QAEHABVQString@@_N@Z @ 25 NONAME ; int CpSettingsWrapper::writeSoftRejectText(class QString const &, bool)
	?setShowCallDuration@CpSettingsWrapper@@QAEH_N@Z @ 26 NONAME ; int CpSettingsWrapper::setShowCallDuration(bool)
	?qt_metacall@Tools@@UAEHW4Call@QMetaObject@@HPAPAX@Z @ 27 NONAME ; int Tools::qt_metacall(enum QMetaObject::Call, int, void * *)
	?trUtf8@CpSettingsWrapper@@SA?AVQString@@PBD0@Z @ 28 NONAME ; class QString CpSettingsWrapper::trUtf8(char const *, char const *)
	??1CpPhoneLocalisation@@UAE@XZ @ 29 NONAME ; CpPhoneLocalisation::~CpPhoneLocalisation(void)
	??_ECpSettingsWrapper@@UAE@I@Z @ 30 NONAME ; CpSettingsWrapper::~CpSettingsWrapper(unsigned int)
	?trUtf8@CpSettingsWrapper@@SA?AVQString@@PBD0H@Z @ 31 NONAME ; class QString CpSettingsWrapper::trUtf8(char const *, char const *, int)
	?trUtf8@CpPhoneLocalisation@@SA?AVQString@@PBD0@Z @ 32 NONAME ; class QString CpPhoneLocalisation::trUtf8(char const *, char const *)
	?tr@Tools@@SA?AVQString@@PBD0@Z @ 33 NONAME ; class QString Tools::tr(char const *, char const *)
	?voipSupported@Tools@@SA_NXZ @ 34 NONAME ; bool Tools::voipSupported(void)
	?staticMetaObject@CpPhoneLocalisation@@2UQMetaObject@@B @ 35 NONAME ; struct QMetaObject const CpPhoneLocalisation::staticMetaObject
	?qt_metacast@Tools@@UAEPAXPBD@Z @ 36 NONAME ; void * Tools::qt_metacast(char const *)
	?readCenrepValue@CpSettingsWrapper@@ABE?AVQVariant@@JK@Z @ 37 NONAME ; class QVariant CpSettingsWrapper::readCenrepValue(long, unsigned long) const
	?trUtf8@Tools@@SA?AVQString@@PBD0H@Z @ 38 NONAME ; class QString Tools::trUtf8(char const *, char const *, int)
	?getStaticMetaObject@CpPhoneLocalisation@@SAABUQMetaObject@@XZ @ 39 NONAME ; struct QMetaObject const & CpPhoneLocalisation::getStaticMetaObject(void)
	?tr@Tools@@SA?AVQString@@PBD0H@Z @ 40 NONAME ; class QString Tools::tr(char const *, char const *, int)
	?qt_metacall@CpSettingsWrapper@@UAEHW4Call@QMetaObject@@HPAPAX@Z @ 41 NONAME ; int CpSettingsWrapper::qt_metacall(enum QMetaObject::Call, int, void * *)
	??0CpPhoneLocalisation@@QAE@PAVQObject@@@Z @ 42 NONAME ; CpPhoneLocalisation::CpPhoneLocalisation(class QObject *)
	??_ECpPhoneLocalisation@@UAE@I@Z @ 43 NONAME ; CpPhoneLocalisation::~CpPhoneLocalisation(unsigned int)
	?removeTranslators@CpPhoneLocalisation@@QAEXXZ @ 44 NONAME ; void CpPhoneLocalisation::removeTranslators(void)
	?numberGroupingSupported@CpSettingsWrapper@@QBE_NXZ @ 45 NONAME ; bool CpSettingsWrapper::numberGroupingSupported(void) const
	?tr@CpSettingsWrapper@@SA?AVQString@@PBD0@Z @ 46 NONAME ; class QString CpSettingsWrapper::tr(char const *, char const *)
	?isFeatureCallWaitingDistiquishNotProvisionedEnabled@CpSettingsWrapper@@QAE_NXZ @ 47 NONAME ; bool CpSettingsWrapper::isFeatureCallWaitingDistiquishNotProvisionedEnabled(void)
	?writeCenrepValue@CpSettingsWrapper@@ABEHJKABVQVariant@@@Z @ 48 NONAME ; int CpSettingsWrapper::writeCenrepValue(long, unsigned long, class QVariant const &) const
	?staticMetaObject@Tools@@2UQMetaObject@@B @ 49 NONAME ; struct QMetaObject const Tools::staticMetaObject
	?readVtVideoSending@CpSettingsWrapper@@QAEHXZ @ 50 NONAME ; int CpSettingsWrapper::readVtVideoSending(void)
	?trUtf8@Tools@@SA?AVQString@@PBD0@Z @ 51 NONAME ; class QString Tools::trUtf8(char const *, char const *)
	?staticMetaObject@CpSettingsWrapper@@2UQMetaObject@@B @ 52 NONAME ; struct QMetaObject const CpSettingsWrapper::staticMetaObject
	??0CpSettingsWrapper@@QAE@PAVQObject@@@Z @ 53 NONAME ; CpSettingsWrapper::CpSettingsWrapper(class QObject *)

