EXPORTS
	?metaObject@CpPhoneNotes@@UBEPBUQMetaObject@@XZ @ 1 NONAME ; struct QMetaObject const * CpPhoneNotes::metaObject(void) const
	?basicServiceGroupName@CpPhoneNotes@@ABE?AVQString@@W4BasicServiceGroups@CpTelephonyUtils@@@Z @ 2 NONAME ; class QString CpPhoneNotes::basicServiceGroupName(enum CpTelephonyUtils::BasicServiceGroups) const
	?activeNoteAboutToClose@CpPhoneNotes@@AAEXXZ @ 3 NONAME ; void CpPhoneNotes::activeNoteAboutToClose(void)
	?handleProgressNoteCanceled@CpPhoneNotes@@AAEXXZ @ 4 NONAME ; void CpPhoneNotes::handleProgressNoteCanceled(void)
	??_ECpPhoneNotes@@UAE@I@Z @ 5 NONAME ; CpPhoneNotes::~CpPhoneNotes(unsigned int)
	?showGlobalErrorNote@CpPhoneNotes@@QAEXAAHH@Z @ 6 NONAME ; void CpPhoneNotes::showGlobalErrorNote(int &, int)
	?qt_metacast@CpSettingsWrapper@@UAEPAXPBD@Z @ 7 NONAME ; void * CpSettingsWrapper::qt_metacast(char const *)
	?getStaticMetaObject@Tools@@SAABUQMetaObject@@XZ @ 8 NONAME ; struct QMetaObject const & Tools::getStaticMetaObject(void)
	??1CpSettingsWrapper@@UAE@XZ @ 9 NONAME ; CpSettingsWrapper::~CpSettingsWrapper(void)
	?qt_metacast@CpPhoneNotes@@UAEPAXPBD@Z @ 10 NONAME ; void * CpPhoneNotes::qt_metacast(char const *)
	?passwordTextChanged@CpPhoneNotes@@AAEXXZ @ 11 NONAME ; void CpPhoneNotes::passwordTextChanged(void)
	?tr@CpPhoneNotes@@SA?AVQString@@PBD0H@Z @ 12 NONAME ; class QString CpPhoneNotes::tr(char const *, char const *, int)
	?instance@CpPhoneNotes@@SAPAV1@XZ @ 13 NONAME ; class CpPhoneNotes * CpPhoneNotes::instance(void)
	?tr@CpSettingsWrapper@@SA?AVQString@@PBD0H@Z @ 14 NONAME ; class QString CpSettingsWrapper::tr(char const *, char const *, int)
	??1CpPhoneNotes@@EAE@XZ @ 15 NONAME ; CpPhoneNotes::~CpPhoneNotes(void)
	?formatPhoneNumber@CpPhoneNotes@@ABE?AVQString@@V2@@Z @ 16 NONAME ; class QString CpPhoneNotes::formatPhoneNumber(class QString) const
	?showGlobalNote@CpPhoneNotes@@QAEXAAHABVQString@@W4MessageBoxType@HbMessageBox@@@Z @ 17 NONAME ; void CpPhoneNotes::showGlobalNote(int &, class QString const &, enum HbMessageBox::MessageBoxType)
	?metaObject@Tools@@UBEPBUQMetaObject@@XZ @ 18 NONAME ; struct QMetaObject const * Tools::metaObject(void) const
	?readSoftRejectText@CpSettingsWrapper@@QAEXAAVQString@@AA_N@Z @ 19 NONAME ; void CpSettingsWrapper::readSoftRejectText(class QString &, bool &)
	?getStaticMetaObject@CpSettingsWrapper@@SAABUQMetaObject@@XZ @ 20 NONAME ; struct QMetaObject const & CpSettingsWrapper::getStaticMetaObject(void)
	?finishedPasswordQueryDialog@CpPhoneNotes@@QAEXPAVHbAction@@@Z @ 21 NONAME ; void CpPhoneNotes::finishedPasswordQueryDialog(class HbAction *)
	?metaObject@CpSettingsWrapper@@UBEPBUQMetaObject@@XZ @ 22 NONAME ; struct QMetaObject const * CpSettingsWrapper::metaObject(void) const
	?videoSupported@Tools@@SA_NXZ @ 23 NONAME ; bool Tools::videoSupported(void)
	?showCallDuration@CpSettingsWrapper@@QAE_NXZ @ 24 NONAME ; bool CpSettingsWrapper::showCallDuration(void)
	?isPhoneOffline@CpSettingsWrapper@@QBE_NXZ @ 25 NONAME ; bool CpSettingsWrapper::isPhoneOffline(void) const
	?errorCodeTextMapping@Tools@@SA_NHAAVQString@@@Z @ 26 NONAME ; bool Tools::errorCodeTextMapping(int, class QString &)
	?trUtf8@CpPhoneNotes@@SA?AVQString@@PBD0H@Z @ 27 NONAME ; class QString CpPhoneNotes::trUtf8(char const *, char const *, int)
	?readCenrepString@CpSettingsWrapper@@ABE?AVQString@@JK@Z @ 28 NONAME ; class QString CpSettingsWrapper::readCenrepString(long, unsigned long) const
	?writeSoftRejectText@CpSettingsWrapper@@QAEHABVQString@@_N@Z @ 29 NONAME ; int CpSettingsWrapper::writeSoftRejectText(class QString const &, bool)
	?showBasicServiceList@CpPhoneNotes@@QAEXABVQString@@ABV?$QList@E@@@Z @ 30 NONAME ; void CpPhoneNotes::showBasicServiceList(class QString const &, class QList<unsigned char> const &)
	?setShowCallDuration@CpSettingsWrapper@@QAEH_N@Z @ 31 NONAME ; int CpSettingsWrapper::setShowCallDuration(bool)
	?qt_metacall@CpPhoneNotes@@UAEHW4Call@QMetaObject@@HPAPAX@Z @ 32 NONAME ; int CpPhoneNotes::qt_metacall(enum QMetaObject::Call, int, void * *)
	?qt_metacall@Tools@@UAEHW4Call@QMetaObject@@HPAPAX@Z @ 33 NONAME ; int Tools::qt_metacall(enum QMetaObject::Call, int, void * *)
	?trUtf8@CpSettingsWrapper@@SA?AVQString@@PBD0@Z @ 34 NONAME ; class QString CpSettingsWrapper::trUtf8(char const *, char const *)
	?tr@CpPhoneNotes@@SA?AVQString@@PBD0@Z @ 35 NONAME ; class QString CpPhoneNotes::tr(char const *, char const *)
	??_ECpSettingsWrapper@@UAE@I@Z @ 36 NONAME ; CpSettingsWrapper::~CpSettingsWrapper(unsigned int)
	?getStaticMetaObject@CpPhoneNotes@@SAABUQMetaObject@@XZ @ 37 NONAME ; struct QMetaObject const & CpPhoneNotes::getStaticMetaObject(void)
	?progressNoteCanceled@CpPhoneNotes@@IAEXXZ @ 38 NONAME ; void CpPhoneNotes::progressNoteCanceled(void)
	?trUtf8@CpSettingsWrapper@@SA?AVQString@@PBD0H@Z @ 39 NONAME ; class QString CpSettingsWrapper::trUtf8(char const *, char const *, int)
	?staticMetaObject@CpPhoneNotes@@2UQMetaObject@@B @ 40 NONAME ; struct QMetaObject const CpPhoneNotes::staticMetaObject
	??0CpPhoneNotes@@AAE@XZ @ 41 NONAME ; CpPhoneNotes::CpPhoneNotes(void)
	?tr@Tools@@SA?AVQString@@PBD0@Z @ 42 NONAME ; class QString Tools::tr(char const *, char const *)
	?showGlobalProgressNote@CpPhoneNotes@@QAEXAAHABVQString@@@Z @ 43 NONAME ; void CpPhoneNotes::showGlobalProgressNote(int &, class QString const &)
	?voipSupported@Tools@@SA_NXZ @ 44 NONAME ; bool Tools::voipSupported(void)
	?qt_metacast@Tools@@UAEPAXPBD@Z @ 45 NONAME ; void * Tools::qt_metacast(char const *)
	?trUtf8@CpPhoneNotes@@SA?AVQString@@PBD0@Z @ 46 NONAME ; class QString CpPhoneNotes::trUtf8(char const *, char const *)
	?readCenrepValue@CpSettingsWrapper@@ABE?AVQVariant@@JK@Z @ 47 NONAME ; class QVariant CpSettingsWrapper::readCenrepValue(long, unsigned long) const
	?trUtf8@Tools@@SA?AVQString@@PBD0H@Z @ 48 NONAME ; class QString Tools::trUtf8(char const *, char const *, int)
	?tr@Tools@@SA?AVQString@@PBD0H@Z @ 49 NONAME ; class QString Tools::tr(char const *, char const *, int)
	?qt_metacall@CpSettingsWrapper@@UAEHW4Call@QMetaObject@@HPAPAX@Z @ 50 NONAME ; int CpSettingsWrapper::qt_metacall(enum QMetaObject::Call, int, void * *)
	?noteShowing@CpPhoneNotes@@QAE_NXZ @ 51 NONAME ; bool CpPhoneNotes::noteShowing(void)
	?showCallDivertDetails@CpPhoneNotes@@QAEXABVPSCallDivertingStatus@@@Z @ 52 NONAME ; void CpPhoneNotes::showCallDivertDetails(class PSCallDivertingStatus const &)
	?passwordQueryCompleted@CpPhoneNotes@@IAEXVQString@@_N@Z @ 53 NONAME ; void CpPhoneNotes::passwordQueryCompleted(class QString, bool)
	?numberGroupingSupported@CpSettingsWrapper@@QBE_NXZ @ 54 NONAME ; bool CpSettingsWrapper::numberGroupingSupported(void) const
	?launchNextNoteIfReady@CpPhoneNotes@@AAEXXZ @ 55 NONAME ; void CpPhoneNotes::launchNextNoteIfReady(void)
	?tr@CpSettingsWrapper@@SA?AVQString@@PBD0@Z @ 56 NONAME ; class QString CpSettingsWrapper::tr(char const *, char const *)
	?cancelNote@CpPhoneNotes@@QAEXH@Z @ 57 NONAME ; void CpPhoneNotes::cancelNote(int)
	?isFeatureCallWaitingDistiquishNotProvisionedEnabled@CpSettingsWrapper@@QAE_NXZ @ 58 NONAME ; bool CpSettingsWrapper::isFeatureCallWaitingDistiquishNotProvisionedEnabled(void)
	?showPasswordQueryDialog@CpPhoneNotes@@QAEXABVQString@@ABVQValidator@@H@Z @ 59 NONAME ; void CpPhoneNotes::showPasswordQueryDialog(class QString const &, class QValidator const &, int)
	?writeCenrepValue@CpSettingsWrapper@@ABEHJKABVQVariant@@@Z @ 60 NONAME ; int CpSettingsWrapper::writeCenrepValue(long, unsigned long, class QVariant const &) const
	?staticMetaObject@Tools@@2UQMetaObject@@B @ 61 NONAME ; struct QMetaObject const Tools::staticMetaObject
	?trUtf8@Tools@@SA?AVQString@@PBD0@Z @ 62 NONAME ; class QString Tools::trUtf8(char const *, char const *)
	?staticMetaObject@CpSettingsWrapper@@2UQMetaObject@@B @ 63 NONAME ; struct QMetaObject const CpSettingsWrapper::staticMetaObject
	??0CpSettingsWrapper@@QAE@PAVQObject@@@Z @ 64 NONAME ; CpSettingsWrapper::CpSettingsWrapper(class QObject *)
	?qt_metacast@CpPhoneLocalisation@@UAEPAXPBD@Z @ 65 NONAME ; void * CpPhoneLocalisation::qt_metacast(char const *)
	?installTranslator@CpPhoneLocalisation@@QAE_NW4TranslationFileId@1@@Z @ 66 NONAME ; bool CpPhoneLocalisation::installTranslator(enum CpPhoneLocalisation::TranslationFileId)
	?trUtf8@CpPhoneLocalisation@@SA?AVQString@@PBD0H@Z @ 67 NONAME ; class QString CpPhoneLocalisation::trUtf8(char const *, char const *, int)
	?tr@CpPhoneLocalisation@@SA?AVQString@@PBD0H@Z @ 68 NONAME ; class QString CpPhoneLocalisation::tr(char const *, char const *, int)
	?qt_metacall@CpPhoneLocalisation@@UAEHW4Call@QMetaObject@@HPAPAX@Z @ 69 NONAME ; int CpPhoneLocalisation::qt_metacall(enum QMetaObject::Call, int, void * *)
	?trUtf8@CpPhoneLocalisation@@SA?AVQString@@PBD0@Z @ 70 NONAME ; class QString CpPhoneLocalisation::trUtf8(char const *, char const *)
	?staticMetaObject@CpPhoneLocalisation@@2UQMetaObject@@B @ 71 NONAME ; struct QMetaObject const CpPhoneLocalisation::staticMetaObject
	??0CpPhoneLocalisation@@QAE@PAVQObject@@@Z @ 72 NONAME ; CpPhoneLocalisation::CpPhoneLocalisation(class QObject *)
	??_ECpPhoneLocalisation@@UAE@I@Z @ 73 NONAME ; CpPhoneLocalisation::~CpPhoneLocalisation(unsigned int)
	?metaObject@CpPhoneLocalisation@@UBEPBUQMetaObject@@XZ @ 74 NONAME ; struct QMetaObject const * CpPhoneLocalisation::metaObject(void) const
	?tr@CpPhoneLocalisation@@SA?AVQString@@PBD0@Z @ 75 NONAME ; class QString CpPhoneLocalisation::tr(char const *, char const *)
	??1CpPhoneLocalisation@@UAE@XZ @ 76 NONAME ; CpPhoneLocalisation::~CpPhoneLocalisation(void)
	?getStaticMetaObject@CpPhoneLocalisation@@SAABUQMetaObject@@XZ @ 77 NONAME ; struct QMetaObject const & CpPhoneLocalisation::getStaticMetaObject(void)
	?removeTranslators@CpPhoneLocalisation@@QAEXXZ @ 78 NONAME ; void CpPhoneLocalisation::removeTranslators(void)

