EXPORTS
	??0CTelBubbleAnim@@IAE@XZ @ 1 NONAME ; CTelBubbleAnim::CTelBubbleAnim(void)
	??0CTelBubbleCallImage@@IAE@XZ @ 2 NONAME ; CTelBubbleCallImage::CTelBubbleCallImage(void)
	??0CTelBubbleImage@@IAE@XZ @ 3 NONAME ; CTelBubbleImage::CTelBubbleImage(void)
	??1CTelBubbleAnim@@UAE@XZ @ 4 NONAME ; CTelBubbleAnim::~CTelBubbleAnim(void)
	??1CTelBubbleCallImage@@UAE@XZ @ 5 NONAME ; CTelBubbleCallImage::~CTelBubbleCallImage(void)
	??1CTelBubbleCustomElement@@UAE@XZ @ 6 NONAME ; CTelBubbleCustomElement::~CTelBubbleCustomElement(void)
	??1CTelBubbleImage@@UAE@XZ @ 7 NONAME ; CTelBubbleImage::~CTelBubbleImage(void)
	?AddFrameToAnimationL@CTelBubbleAnim@@QBEXAAVCEikImage@@@Z @ 8 NONAME ; void CTelBubbleAnim::AddFrameToAnimationL(class CEikImage &) const
	?AddFrameToAnimationLD@CTelBubbleAnim@@QBEXPAVCEikImage@@@Z @ 9 NONAME ; void CTelBubbleAnim::AddFrameToAnimationLD(class CEikImage *) const
	?ConstructL@CTelBubbleAnim@@MAEXH@Z @ 10 NONAME ; void CTelBubbleAnim::ConstructL(int)
	?ConstructL@CTelBubbleCallImage@@MAEXXZ @ 11 NONAME ; void CTelBubbleCallImage::ConstructL(void)
	?ConstructL@CTelBubbleImage@@MAEXXZ @ 12 NONAME ; void CTelBubbleImage::ConstructL(void)
	?Control@CTelBubbleCustomElement@@QBEPAVCCoeControl@@XZ @ 13 NONAME ; class CCoeControl * CTelBubbleCustomElement::Control(void) const
	?ControlType@CTelBubbleCustomElement@@QBE?AW4TControlType@1@XZ @ 14 NONAME ; enum CTelBubbleCustomElement::TControlType CTelBubbleCustomElement::ControlType(void) const
	?CountComponentControls@CTelBubbleAnim@@MBEHXZ @ 15 NONAME ; int CTelBubbleAnim::CountComponentControls(void) const
	?Draw@CTelBubbleAnim@@MBEXABVTRect@@@Z @ 16 NONAME ; void CTelBubbleAnim::Draw(class TRect const &) const
	?Draw@CTelBubbleCallImage@@MBEXABVTRect@@@Z @ 17 NONAME ; void CTelBubbleCallImage::Draw(class TRect const &) const
	?ElementType@CTelBubbleCustomElement@@QBE?AW4TElementType@1@XZ @ 18 NONAME ; enum CTelBubbleCustomElement::TElementType CTelBubbleCustomElement::ElementType(void) const
	?Image@CTelBubbleCallImage@@IBEPBVCFbsBitmap@@XZ @ 19 NONAME ; class CFbsBitmap const * CTelBubbleCallImage::Image(void) const
	?ImageChanged@CTelBubbleCallImage@@MAEXXZ @ 20 NONAME ; void CTelBubbleCallImage::ImageChanged(void)
	?ImagePlacingArea@CTelBubbleCallImage@@IBEABVTRect@@XZ @ 21 NONAME ; class TRect const & CTelBubbleCallImage::ImagePlacingArea(void) const
	?IsFullScreenImage@CTelBubbleCallImage@@IBEHXZ @ 22 NONAME ; int CTelBubbleCallImage::IsFullScreenImage(void) const
	?MakeVisible@CTelBubbleAnim@@MAEXH@Z @ 23 NONAME ; void CTelBubbleAnim::MakeVisible(int)
	?Mask@CTelBubbleCallImage@@IBEPBVCFbsBitmap@@XZ @ 24 NONAME ; class CFbsBitmap const * CTelBubbleCallImage::Mask(void) const
	?NewL@CTelBubbleAnim@@SAPAV1@H@Z @ 25 NONAME ; class CTelBubbleAnim * CTelBubbleAnim::NewL(int)
	?NewL@CTelBubbleCallImage@@SAPAV1@XZ @ 26 NONAME ; class CTelBubbleCallImage * CTelBubbleCallImage::NewL(void)
	?NewL@CTelBubbleCustomElement@@SAPAV1@PAVCCoeControl@@W4TElementType@1@@Z @ 27 NONAME ; class CTelBubbleCustomElement * CTelBubbleCustomElement::NewL(class CCoeControl *, enum CTelBubbleCustomElement::TElementType)
	?NewL@CTelBubbleCustomElement@@SAPAV1@PAVCTelBubbleAnim@@W4TElementType@1@@Z @ 28 NONAME ; class CTelBubbleCustomElement * CTelBubbleCustomElement::NewL(class CTelBubbleAnim *, enum CTelBubbleCustomElement::TElementType)
	?NewL@CTelBubbleCustomElement@@SAPAV1@PAVCTelBubbleCallImage@@W4TElementType@1@@Z @ 29 NONAME ; class CTelBubbleCustomElement * CTelBubbleCustomElement::NewL(class CTelBubbleCallImage *, enum CTelBubbleCustomElement::TElementType)
	?NewL@CTelBubbleCustomElement@@SAPAV1@PAVCTelBubbleImage@@W4TElementType@1@@Z @ 30 NONAME ; class CTelBubbleCustomElement * CTelBubbleCustomElement::NewL(class CTelBubbleImage *, enum CTelBubbleCustomElement::TElementType)
	?NewL@CTelBubbleCustomElement@@SAPAV1@PAVCTelBubbleLabel@@W4TElementType@1@@Z @ 31 NONAME ; class CTelBubbleCustomElement * CTelBubbleCustomElement::NewL(class CTelBubbleLabel *, enum CTelBubbleCustomElement::TElementType)
	?NewL@CTelBubbleImage@@SAPAV1@XZ @ 32 NONAME ; class CTelBubbleImage * CTelBubbleImage::NewL(void)
	?Offset@CTelBubbleCallImage@@IBEABVTPoint@@XZ @ 33 NONAME ; class TPoint const & CTelBubbleCallImage::Offset(void) const
	?PositionChanged@CTelBubbleImage@@MAEXXZ @ 34 NONAME ; void CTelBubbleImage::PositionChanged(void)
	?Reset@CTelBubbleAnim@@QBEXXZ @ 35 NONAME ; void CTelBubbleAnim::Reset(void) const
	?SetContainerWindowL@CTelBubbleAnim@@MAEXABVCCoeControl@@@Z @ 36 NONAME ; void CTelBubbleAnim::SetContainerWindowL(class CCoeControl const &)
	?SetImage@CTelBubbleCallImage@@QAEXPAVCFbsBitmap@@H0H@Z @ 37 NONAME ; void CTelBubbleCallImage::SetImage(class CFbsBitmap *, int, class CFbsBitmap *, int)
	?SetImagePlacingArea@CTelBubbleCallImage@@QAEXAAVTRect@@@Z @ 38 NONAME ; void CTelBubbleCallImage::SetImagePlacingArea(class TRect &)
	?SizeChanged@CTelBubbleAnim@@MAEXXZ @ 39 NONAME ; void CTelBubbleAnim::SizeChanged(void)
	?SizeChanged@CTelBubbleCallImage@@MAEXXZ @ 40 NONAME ; void CTelBubbleCallImage::SizeChanged(void)
	?SizeChanged@CTelBubbleImage@@MAEXXZ @ 41 NONAME ; void CTelBubbleImage::SizeChanged(void)
	?SourceRect@CTelBubbleCallImage@@IBEABVTRect@@XZ @ 42 NONAME ; class TRect const & CTelBubbleCallImage::SourceRect(void) const
	?StartAnimationL@CTelBubbleAnim@@QAEXXZ @ 43 NONAME ; void CTelBubbleAnim::StartAnimationL(void)
	?StopAnimation@CTelBubbleAnim@@QAEXXZ @ 44 NONAME ; void CTelBubbleAnim::StopAnimation(void)

