EXPORTS
	_ZN15SettingsWrapper11qt_metacallEN11QMetaObject4CallEiPPv @ 1 NONAME
	_ZN15SettingsWrapper11qt_metacastEPKc @ 2 NONAME
	_ZN15SettingsWrapper16showCallDurationEv @ 3 NONAME
	_ZN15SettingsWrapper16staticMetaObjectE @ 4 NONAME DATA 16
	_ZN15SettingsWrapper18readSoftRejectTextER7QStringRb @ 5 NONAME
	_ZN15SettingsWrapper18readVtVideoSendingEv @ 6 NONAME
	_ZN15SettingsWrapper19getStaticMetaObjectEv @ 7 NONAME
	_ZN15SettingsWrapper19setShowCallDurationEb @ 8 NONAME
	_ZN15SettingsWrapper19writeSoftRejectTextERK7QStringb @ 9 NONAME
	_ZN15SettingsWrapper19writeVtVideoSendingEi @ 10 NONAME
	_ZN15SettingsWrapper51isFeatureCallWaitingDistiquishNotProvisionedEnabledEv @ 11 NONAME
	_ZN15SettingsWrapperC1EP7QObject @ 12 NONAME
	_ZN15SettingsWrapperC2EP7QObject @ 13 NONAME
	_ZN15SettingsWrapperD0Ev @ 14 NONAME
	_ZN15SettingsWrapperD1Ev @ 15 NONAME
	_ZN15SettingsWrapperD2Ev @ 16 NONAME
	_ZN5Tools11qt_metacallEN11QMetaObject4CallEiPPv @ 17 NONAME
	_ZN5Tools11qt_metacastEPKc @ 18 NONAME
	_ZN5Tools13voipSupportedEv @ 19 NONAME
	_ZN5Tools14videoSupportedEv @ 20 NONAME
	_ZN5Tools16staticMetaObjectE @ 21 NONAME DATA 16
	_ZN5Tools19getStaticMetaObjectEv @ 22 NONAME
	_ZNK15SettingsWrapper10metaObjectEv @ 23 NONAME
	_ZNK15SettingsWrapper13isOngoingCallEv @ 24 NONAME
	_ZNK15SettingsWrapper14isPhoneOfflineEv @ 25 NONAME
	_ZNK15SettingsWrapper15readCenrepValueElm @ 26 NONAME
	_ZNK15SettingsWrapper15readPubSubValueElm @ 27 NONAME
	_ZNK15SettingsWrapper16readCenrepStringElm @ 28 NONAME
	_ZNK15SettingsWrapper16writeCenrepValueElmRK8QVariant @ 29 NONAME
	_ZNK15SettingsWrapper20isConnectedToNetworkEv @ 30 NONAME
	_ZNK15SettingsWrapper22forbiddenIconSupportedEv @ 31 NONAME
	_ZNK15SettingsWrapper23numberGroupingSupportedEv @ 32 NONAME
	_ZNK5Tools10metaObjectEv @ 33 NONAME
	_ZTI15SettingsWrapper @ 34 NONAME
	_ZTI5Tools @ 35 NONAME
	_ZTV15SettingsWrapper @ 36 NONAME
	_ZTV5Tools @ 37 NONAME

