EXPORTS
	??1CBubbleManager@@UAE@XZ @ 1 NONAME ; CBubbleManager::~CBubbleManager(void)
	?AddRowToConference@CBubbleManager@@QAEXABH@Z @ 2 NONAME ; void CBubbleManager::AddRowToConference(int const &)
	?CancelVideoRingTone@CBubbleManager@@QAEXXZ @ 3 NONAME ; void CBubbleManager::CancelVideoRingTone(void)
	?ChangeEditorMode@CBubbleManager@@QAEHH@Z @ 4 NONAME ; int CBubbleManager::ChangeEditorMode(int)
	?ConferenceRowCount@CBubbleManager@@QBEEXZ @ 5 NONAME ; unsigned char CBubbleManager::ConferenceRowCount(void) const
	?CreateCallHeader@CBubbleManager@@QAEHXZ @ 6 NONAME ; int CBubbleManager::CreateCallHeader(void)
	?CreateConference@CBubbleManager@@QAEHABH0@Z @ 7 NONAME ; int CBubbleManager::CreateConference(int const &, int const &)
	?CreateNumberEntry@CBubbleManager@@QAEXXZ @ 8 NONAME ; void CBubbleManager::CreateNumberEntry(void)
	?EndChanges@CBubbleManager@@QAEXXZ @ 9 NONAME ; void CBubbleManager::EndChanges(void)
	?GetEditorMode@CBubbleManager@@QBEHXZ @ 10 NONAME ; int CBubbleManager::GetEditorMode(void) const
	?GetNumberEntry@CBubbleManager@@QBEPAVCCoeControl@@XZ @ 11 NONAME ; class CCoeControl * CBubbleManager::GetNumberEntry(void) const
	?GetTextFromNumberEntry@CBubbleManager@@QAEXAAVTDes16@@@Z @ 12 NONAME ; void CBubbleManager::GetTextFromNumberEntry(class TDes16 &)
	?HandleBackgroundImageChange@CBubbleManager@@QAEXXZ @ 13 NONAME ; void CBubbleManager::HandleBackgroundImageChange(void)
	?IsConferenceExpanded@CBubbleManager@@QBEHXZ @ 14 NONAME ; int CBubbleManager::IsConferenceExpanded(void) const
	?IsNumberEntryUsed@CBubbleManager@@QBEHXZ @ 15 NONAME ; int CBubbleManager::IsNumberEntryUsed(void) const
	?MoveHighlightOneDownInConference@CBubbleManager@@QAEXXZ @ 16 NONAME ; void CBubbleManager::MoveHighlightOneDownInConference(void)
	?MoveHighlightOneUpInConference@CBubbleManager@@QAEXXZ @ 17 NONAME ; void CBubbleManager::MoveHighlightOneUpInConference(void)
	?MuteVideoRingTone@CBubbleManager@@QAEXXZ @ 18 NONAME ; void CBubbleManager::MuteVideoRingTone(void)
	?NewL@CBubbleManager@@SAPAV1@ABVCCoeControl@@ABVTRect@@@Z @ 19 NONAME ; class CBubbleManager * CBubbleManager::NewL(class CCoeControl const &, class TRect const &)
	?NewL@CBubbleManager@@SAPAV1@ABVCCoeControl@@ABVTRect@@H@Z @ 20 NONAME ; class CBubbleManager * CBubbleManager::NewL(class CCoeControl const &, class TRect const &, int)
	?PrepareIcons@CBubbleManager@@QAEXXZ @ 21 NONAME ; void CBubbleManager::PrepareIcons(void)
	?RemoveCallHeader@CBubbleManager@@QAEXABH@Z @ 22 NONAME ; void CBubbleManager::RemoveCallHeader(int const &)
	?RemoveConference@CBubbleManager@@QAEXXZ @ 23 NONAME ; void CBubbleManager::RemoveConference(void)
	?RemoveNumberEntry@CBubbleManager@@QAEXXZ @ 24 NONAME ; void CBubbleManager::RemoveNumberEntry(void)
	?RemoveRowFromConference@CBubbleManager@@QAEXABH@Z @ 25 NONAME ; void CBubbleManager::RemoveRowFromConference(int const &)
	?ResetEditorToDefaultValues@CBubbleManager@@QAEXXZ @ 26 NONAME ; void CBubbleManager::ResetEditorToDefaultValues(void)
	?SelectionIdInConference@CBubbleManager@@QBEHXZ @ 27 NONAME ; int CBubbleManager::SelectionIdInConference(void) const
	?SelectionInConference@CBubbleManager@@QBEEXZ @ 28 NONAME ; unsigned char CBubbleManager::SelectionInConference(void) const
	?SetCLI@CBubbleManager@@QAEXABHABVTDesC16@@ABW4TPhoneClippingDirection@1@@Z @ 29 NONAME ; void CBubbleManager::SetCLI(int const &, class TDesC16 const &, enum CBubbleManager::TPhoneClippingDirection const &)
	?SetCNAP@CBubbleManager@@QAEXABHABVTDesC16@@ABW4TPhoneClippingDirection@1@@Z @ 30 NONAME ; void CBubbleManager::SetCNAP(int const &, class TDesC16 const &, enum CBubbleManager::TPhoneClippingDirection const &)
	?SetCallFlag@CBubbleManager@@QAEXABHABW4TPhoneCallTypeFlags@1@0@Z @ 31 NONAME ; void CBubbleManager::SetCallFlag(int const &, enum CBubbleManager::TPhoneCallTypeFlags const &, int const &)
	?SetCallFlags@CBubbleManager@@QAEXABHABK@Z @ 32 NONAME ; void CBubbleManager::SetCallFlags(int const &, unsigned long const &)
	?SetCallObjectFromTheme@CBubbleManager@@QAEXABH@Z @ 33 NONAME ; void CBubbleManager::SetCallObjectFromTheme(int const &)
	?SetCallObjectImage@CBubbleManager@@QAEXABHABVTDesC16@@@Z @ 34 NONAME ; void CBubbleManager::SetCallObjectImage(int const &, class TDesC16 const &)
	?SetCallObjectImage@CBubbleManager@@QAEXABHPAVCFbsBitmap@@1H@Z @ 35 NONAME ; void CBubbleManager::SetCallObjectImage(int const &, class CFbsBitmap *, class CFbsBitmap *, int)
	?SetCallObjectText@CBubbleManager@@QAEXABHABVTDesC16@@@Z @ 36 NONAME ; void CBubbleManager::SetCallObjectText(int const &, class TDesC16 const &)
	?SetCallTime@CBubbleManager@@QAEXABHABVTDesC16@@@Z @ 37 NONAME ; void CBubbleManager::SetCallTime(int const &, class TDesC16 const &)
	?SetExpandedConferenceCallHeader@CBubbleManager@@QAEXABH@Z @ 38 NONAME ; void CBubbleManager::SetExpandedConferenceCallHeader(int const &)
	?SetLabel@CBubbleManager@@QAEXABHABVTDesC16@@1ABW4TPhoneClippingDirection@1@@Z @ 39 NONAME ; void CBubbleManager::SetLabel(int const &, class TDesC16 const &, class TDesC16 const &, enum CBubbleManager::TPhoneClippingDirection const &)
	?SetLabel@CBubbleManager@@QAEXABHABVTDesC16@@ABW4TPhoneClippingDirection@1@@Z @ 40 NONAME ; void CBubbleManager::SetLabel(int const &, class TDesC16 const &, enum CBubbleManager::TPhoneClippingDirection const &)
	?SetNumberEntryVisible@CBubbleManager@@QAEXABH@Z @ 41 NONAME ; void CBubbleManager::SetNumberEntryVisible(int const &)
	?SetNumberType@CBubbleManager@@QAEXABHABW4TPhoneNumberType@1@@Z @ 42 NONAME ; void CBubbleManager::SetNumberType(int const &, enum CBubbleManager::TPhoneNumberType const &)
	?SetParticipantListCLI@CBubbleManager@@QAEXABHW4TBubbleParticipantListCLI@1@@Z @ 43 NONAME ; void CBubbleManager::SetParticipantListCLI(int const &, enum CBubbleManager::TBubbleParticipantListCLI)
	?SetPbkNumberType@CBubbleManager@@QAEXABHH@Z @ 44 NONAME ; void CBubbleManager::SetPbkNumberType(int const &, int)
	?SetPhCntNumberType@CBubbleManager@@QAEXABHW4TNumberType@MPhCntMatch@@@Z @ 45 NONAME ; void CBubbleManager::SetPhCntNumberType(int const &, enum MPhCntMatch::TNumberType)
	?SetPhoneMuted@CBubbleManager@@QAEXABH@Z @ 46 NONAME ; void CBubbleManager::SetPhoneMuted(int const &)
	?SetSelectionIdInConference@CBubbleManager@@QAEXABH@Z @ 47 NONAME ; void CBubbleManager::SetSelectionIdInConference(int const &)
	?SetSelectionInConference@CBubbleManager@@QAEXABE@Z @ 48 NONAME ; void CBubbleManager::SetSelectionInConference(unsigned char const &)
	?SetState@CBubbleManager@@QAEXABHABW4TPhoneCallState@1@@Z @ 49 NONAME ; void CBubbleManager::SetState(int const &, enum CBubbleManager::TPhoneCallState const &)
	?SetTextToNumberEntry@CBubbleManager@@QAEXABVTDesC16@@@Z @ 50 NONAME ; void CBubbleManager::SetTextToNumberEntry(class TDesC16 const &)
	?SetThumbnail@CBubbleManager@@QAEXABHPAVCFbsBitmap@@1H@Z @ 51 NONAME ; void CBubbleManager::SetThumbnail(int const &, class CFbsBitmap *, class CFbsBitmap *, int)
	?SetVideoRingTone@CBubbleManager@@QAEXABVTDesC16@@W4TBubbleVideoPlayMode@1@HHPAVMBubbleVideoPlaybackObserver@@@Z @ 52 NONAME ; void CBubbleManager::SetVideoRingTone(class TDesC16 const &, enum CBubbleManager::TBubbleVideoPlayMode, int, int, class MBubbleVideoPlaybackObserver *)
	?ShownHeaderCount@CBubbleManager@@QBEEXZ @ 53 NONAME ; unsigned char CBubbleManager::ShownHeaderCount(void) const
	?StartChanges@CBubbleManager@@QAEXXZ @ 54 NONAME ; void CBubbleManager::StartChanges(void)
	?StopVideoRingTone@CBubbleManager@@QAEXXZ @ 55 NONAME ; void CBubbleManager::StopVideoRingTone(void)
	?UpdateCLI@CBubbleManager@@QAEXABHABVTDesC16@@ABW4TPhoneClippingDirection@1@@Z @ 56 NONAME ; void CBubbleManager::UpdateCLI(int const &, class TDesC16 const &, enum CBubbleManager::TPhoneClippingDirection const &)
	?UpdateCallHeaderText@CBubbleManager@@QAEXABHABVTDesC16@@1ABW4TPhoneClippingDirection@1@@Z @ 57 NONAME ; void CBubbleManager::UpdateCallHeaderText(int const &, class TDesC16 const &, class TDesC16 const &, enum CBubbleManager::TPhoneClippingDirection const &)
	?UpdateCallTime@CBubbleManager@@QAEXABHABVTDesC16@@@Z @ 58 NONAME ; void CBubbleManager::UpdateCallTime(int const &, class TDesC16 const &)
	?SetTouchPaneVisible@CBubbleManager@@QAEXH@Z @ 59 NONAME ; void CBubbleManager::SetTouchPaneVisible(int)
	?TouchPane@CBubbleManager@@QAEPAVMBubbleTouchPaneInterface@@XZ @ 60 NONAME ; class MBubbleTouchPaneInterface * CBubbleManager::TouchPane(void)
	?PreloadCallThemeImage@CBubbleManager@@QAEXH@Z @ 61 NONAME ; void CBubbleManager::PreloadCallThemeImage(int)
	?RemoveCustomElement@CBubbleManager@@QAEXABHPAVCTelBubbleCustomElement@@@Z @ 62 NONAME ; void CBubbleManager::RemoveCustomElement(int const &, class CTelBubbleCustomElement *)
	?AddCustomElement@CBubbleManager@@QAEXABHPAVCTelBubbleCustomElement@@H@Z @ 63 NONAME ; void CBubbleManager::AddCustomElement(int const &, class CTelBubbleCustomElement *, int)

