EXPORTS
	_ZN20CPhoneViewController10SetHiddenLEi @ 1 NONAME
	_ZN20CPhoneViewController11HelpContextEv @ 2 NONAME
	_ZN20CPhoneViewController12FetchContentEv @ 3 NONAME
	_ZN20CPhoneViewController14ExecuteCommandEi @ 4 NONAME
	_ZN20CPhoneViewController14ExecuteCommandEiP18TPhoneCommandParam @ 5 NONAME
	_ZN20CPhoneViewController14HandleCommandLEi @ 6 NONAME
	_ZN20CPhoneViewController14HandleCommandLEiP18TPhoneCommandParam @ 7 NONAME
	_ZN20CPhoneViewController15ExecuteCommandLEi @ 8 NONAME
	_ZN20CPhoneViewController15ExecuteCommandLEiP18TPhoneCommandParam @ 9 NONAME
	_ZN20CPhoneViewController15ExecuteCommandLEii @ 10 NONAME
	_ZN20CPhoneViewController15ExecuteCommandLEiiP18TPhoneCommandParam @ 11 NONAME
	_ZN20CPhoneViewController15ExecuteCommandLEiiR7TDesC16 @ 12 NONAME
	_ZN20CPhoneViewController17IdleWindowGroupIdEv @ 13 NONAME
	_ZN20CPhoneViewController18HandleLayoutChangeE5TRect @ 14 NONAME
	_ZN20CPhoneViewController19StatusPaneDisplayedEv @ 15 NONAME
	_ZN20CPhoneViewController21HandleResourceChangeLEi @ 16 NONAME
	_ZN20CPhoneViewController24ApplicationWindowGroupIdEv @ 17 NONAME
	_ZN20CPhoneViewController28SetBlockingDialogIsDisplayedEi @ 18 NONAME
	_ZN20CPhoneViewController34ForegroundApplicationWindowGroupIdEv @ 19 NONAME
	_ZN20CPhoneViewController42DoFetchForegroundApplicationWindowGroupIdLER9CEikonEnv @ 20 NONAME
	_ZN20CPhoneViewController4NewLE5TRect @ 21 NONAME
	_ZN20CPhoneViewController9PhoneViewEv @ 22 NONAME
	_ZN21CPhoneSingleItemFetch4NewLER9CEikonEnvR20CPhoneViewControllerR23CPhoneContactControllerR16CPhoneStatusPane @ 23 NONAME
	_ZN22CPhoneDialerController10ConstructLEv @ 24 NONAME
	_ZN22CPhoneDialerController21SetNumberEntryIsEmptyEi @ 25 NONAME
	_ZN22CPhoneDialerController22NumberEntryPromptTextLEv @ 26 NONAME
	_ZN22CPhoneDialerControllerC1EP19CPhoneBubbleWrapperR7CCoeEnv @ 27 NONAME
	_ZN22CPhoneDialerControllerC2EP19CPhoneBubbleWrapperR7CCoeEnv @ 28 NONAME
	_ZN22CPhoneDialerControllerD0Ev @ 29 NONAME
	_ZN22CPhoneDialerControllerD1Ev @ 30 NONAME
	_ZN22CPhoneDialerControllerD2Ev @ 31 NONAME
	_ZNK20CPhoneViewController25BlockingDialogIsDisplayedEv @ 32 NONAME
	_ZNK22CPhoneDialerController11ButtonStateEN22MPhoneDialerController12TButtonIndexE @ 33 NONAME
	_ZNK22CPhoneDialerController12ButtonDimmedEN22MPhoneDialerController12TButtonIndexE @ 34 NONAME
	_ZNK22CPhoneDialerController13CbaResourceIdEv @ 35 NONAME
	_ZNK22CPhoneDialerController13GetButtonDataEN22MPhoneDialerController12TButtonIndexER13RPointerArrayINS0_11CButtonDataEE @ 36 NONAME
	_ZNK22CPhoneDialerController14MenuResourceIdEv @ 37 NONAME
	_ZNK22CPhoneDialerController18EasyDialingAllowedEv @ 38 NONAME
	_ZNK22CPhoneDialerController19EmergencyCallActiveEv @ 39 NONAME
	_ZTI10CPhoneNote @ 40 NONAME
	_ZTI10CPhoneView @ 41 NONAME
	_ZTI15CPhoneTextQuery @ 42 NONAME
	_ZTI16CPhoneDialerView @ 43 NONAME
	_ZTI16CPhoneStatusPane @ 44 NONAME
	_ZTI17CPhoneAudioPlayer @ 45 NONAME
	_ZTI17CPhoneQueryDialog @ 46 NONAME
	_ZTI17CPhoneRingingTone @ 47 NONAME
	_ZTI17CPhoneVmbxHandler @ 48 NONAME
	_ZTI18CPhoneProgressNote @ 49 NONAME
	_ZTI19CPhoneBubbleMapping @ 50 NONAME
	_ZTI19CPhoneBubbleWrapper @ 51 NONAME
	_ZTI19CPhoneTextTitlePane @ 52 NONAME
	_ZTI20CPhoneMenuController @ 53 NONAME
	_ZTI20CPhoneNoteController @ 54 NONAME
	_ZTI20CPhoneViewController @ 55 NONAME
	_ZTI21CPhoneApplicationExit @ 56 NONAME
	_ZTI21CPhoneAudioController @ 57 NONAME
	_ZTI21CPhoneBubbleExtension @ 58 NONAME
	_ZTI21CPhoneDtmfSendingNote @ 59 NONAME
	_ZTI21CPhoneIncallIndicator @ 60 NONAME
	_ZTI21CPhoneListQueryDialog @ 61 NONAME
	_ZTI21CPhoneQueryController @ 62 NONAME
	_ZTI21CPhoneSingleItemFetch @ 63 NONAME
	_ZTI22CPhoneDialerController @ 64 NONAME
	_ZTI23CPhoneContactController @ 65 NONAME
	_ZTI25CPhoneBubbleExtensionData @ 66 NONAME
	_ZTI25CPhoneDtmfNumberListQuery @ 67 NONAME
	_ZTI25CPhoneRingingTonePlayerAO @ 68 NONAME
	_ZTI26CPhoneKeyCaptureController @ 69 NONAME
	_ZTI28CPhoneBubbleExtensionManager @ 70 NONAME
	_ZTI29CPhoneCallHeaderTextAnimation @ 71 NONAME
	_ZTIN21CPhoneApplicationExit11CElementUidE @ 72 NONAME
	_ZTIN21CPhoneApplicationExit13CElementBasicE @ 73 NONAME
	_ZTIN21CPhoneApplicationExit13CElementDriveE @ 74 NONAME
	_ZTV10CPhoneNote @ 75 NONAME
	_ZTV10CPhoneView @ 76 NONAME
	_ZTV15CPhoneTextQuery @ 77 NONAME
	_ZTV16CPhoneDialerView @ 78 NONAME
	_ZTV16CPhoneStatusPane @ 79 NONAME
	_ZTV17CPhoneAudioPlayer @ 80 NONAME
	_ZTV17CPhoneQueryDialog @ 81 NONAME
	_ZTV17CPhoneRingingTone @ 82 NONAME
	_ZTV17CPhoneVmbxHandler @ 83 NONAME
	_ZTV18CPhoneProgressNote @ 84 NONAME
	_ZTV19CPhoneBubbleMapping @ 85 NONAME
	_ZTV19CPhoneBubbleWrapper @ 86 NONAME
	_ZTV19CPhoneTextTitlePane @ 87 NONAME
	_ZTV20CPhoneMenuController @ 88 NONAME
	_ZTV20CPhoneNoteController @ 89 NONAME
	_ZTV20CPhoneViewController @ 90 NONAME
	_ZTV21CPhoneApplicationExit @ 91 NONAME
	_ZTV21CPhoneAudioController @ 92 NONAME
	_ZTV21CPhoneBubbleExtension @ 93 NONAME
	_ZTV21CPhoneDtmfSendingNote @ 94 NONAME
	_ZTV21CPhoneIncallIndicator @ 95 NONAME
	_ZTV21CPhoneListQueryDialog @ 96 NONAME
	_ZTV21CPhoneQueryController @ 97 NONAME
	_ZTV21CPhoneSingleItemFetch @ 98 NONAME
	_ZTV22CPhoneDialerController @ 99 NONAME
	_ZTV23CPhoneContactController @ 100 NONAME
	_ZTV25CPhoneBubbleExtensionData @ 101 NONAME
	_ZTV25CPhoneDtmfNumberListQuery @ 102 NONAME
	_ZTV25CPhoneRingingTonePlayerAO @ 103 NONAME
	_ZTV26CPhoneKeyCaptureController @ 104 NONAME
	_ZTV28CPhoneBubbleExtensionManager @ 105 NONAME
	_ZTV29CPhoneCallHeaderTextAnimation @ 106 NONAME
	_ZTVN21CPhoneApplicationExit11CElementUidE @ 107 NONAME
	_ZTVN21CPhoneApplicationExit13CElementBasicE @ 108 NONAME
	_ZTVN21CPhoneApplicationExit13CElementDriveE @ 109 NONAME
	_ZThn12_N20CPhoneViewController28SetBlockingDialogIsDisplayedEi @ 110 NONAME
	_ZThn4_N20CPhoneViewController12FetchContentEv @ 111 NONAME
	_ZThn4_N20CPhoneViewController14ExecuteCommandEi @ 112 NONAME
	_ZThn4_N20CPhoneViewController14ExecuteCommandEiP18TPhoneCommandParam @ 113 NONAME
	_ZThn4_N20CPhoneViewController14HandleCommandLEi @ 114 NONAME
	_ZThn4_N20CPhoneViewController14HandleCommandLEiP18TPhoneCommandParam @ 115 NONAME
	_ZThn4_N20CPhoneViewController15ExecuteCommandLEi @ 116 NONAME
	_ZThn4_N20CPhoneViewController15ExecuteCommandLEiP18TPhoneCommandParam @ 117 NONAME
	_ZThn4_N20CPhoneViewController15ExecuteCommandLEii @ 118 NONAME
	_ZThn4_N20CPhoneViewController15ExecuteCommandLEiiP18TPhoneCommandParam @ 119 NONAME
	_ZThn4_N20CPhoneViewController15ExecuteCommandLEiiR7TDesC16 @ 120 NONAME
	_ZThn4_N22CPhoneDialerController21SetNumberEntryIsEmptyEi @ 121 NONAME
	_ZThn4_N22CPhoneDialerController22NumberEntryPromptTextLEv @ 122 NONAME
	_ZThn4_NK22CPhoneDialerController11ButtonStateEN22MPhoneDialerController12TButtonIndexE @ 123 NONAME
	_ZThn4_NK22CPhoneDialerController12ButtonDimmedEN22MPhoneDialerController12TButtonIndexE @ 124 NONAME
	_ZThn4_NK22CPhoneDialerController13CbaResourceIdEv @ 125 NONAME
	_ZThn4_NK22CPhoneDialerController13GetButtonDataEN22MPhoneDialerController12TButtonIndexER13RPointerArrayINS0_11CButtonDataEE @ 126 NONAME
	_ZThn4_NK22CPhoneDialerController14MenuResourceIdEv @ 127 NONAME
	_ZThn4_NK22CPhoneDialerController18EasyDialingAllowedEv @ 128 NONAME
	_ZTI23CPhoneRingingToneServer @ 129 NONAME
	_ZTI28CPhoneRingingToneSrvPlayerAO @ 130 NONAME
	_ZTI30CPhoneRingingToneServerSession @ 131 NONAME
	_ZTV23CPhoneRingingToneServer @ 132 NONAME
	_ZTV28CPhoneRingingToneSrvPlayerAO @ 133 NONAME
	_ZTV30CPhoneRingingToneServerSession @ 134 NONAME

