EXPORTS
	_ZN15CPECallHandling10AnswerCallEv @ 1 NONAME
	_ZN15CPECallHandling10DropMemberEi @ 2 NONAME
	_ZN15CPECallHandling10GoOneToOneEi @ 3 NONAME
	_ZN15CPECallHandling10RejectCallEv @ 4 NONAME
	_ZN15CPECallHandling10ReleaseAllEv @ 5 NONAME
	_ZN15CPECallHandling10ResumeCallEv @ 6 NONAME
	_ZN15CPECallHandling11GetCallInfoERN11RMobileCall17TMobileCallInfoV3Ei @ 7 NONAME
	_ZN15CPECallHandling11GetLifeTimeER5TDes8 @ 8 NONAME
	_ZN15CPECallHandling12GetCallStateEi @ 9 NONAME
	_ZN15CPECallHandling12StopDtmfToneEv @ 10 NONAME
	_ZN15CPECallHandling13GetMissedCallERii @ 11 NONAME
	_ZN15CPECallHandling13ReplaceActiveEv @ 12 NONAME
	_ZN15CPECallHandling13SetActiveLineEv @ 13 NONAME
	_ZN15CPECallHandling13StartDtmfToneERK5TChar @ 14 NONAME
	_ZN15CPECallHandling13TransferCallsEv @ 15 NONAME
	_ZN15CPECallHandling14CancelDtmfPlayEv @ 16 NONAME
	_ZN15CPECallHandling14ConnectedCallsEv @ 17 NONAME
	_ZN15CPECallHandling14DialMultimediaERK4TBufILi100EERi @ 18 NONAME
	_ZN15CPECallHandling15BuildConferenceEv @ 19 NONAME
	_ZN15CPECallHandling15GetCallDurationER20TTimeIntervalSecondsi @ 20 NONAME
	_ZN15CPECallHandling15StopDtmfSendingEv @ 21 NONAME
	_ZN15CPECallHandling16GetNumberOfCallsEv @ 22 NONAME
	_ZN15CPECallHandling17DialEmergencyCallERK4TBufILi100EE @ 23 NONAME
	_ZN15CPECallHandling19AddConferenceMemberEv @ 24 NONAME
	_ZN15CPECallHandling19CallTerminatedErrorEi @ 25 NONAME
	_ZN15CPECallHandling19ContinueDtmfSendingEv @ 26 NONAME
	_ZN15CPECallHandling19UpdatePhoneIdentityEN14MEngineMonitor26TPEMessagesFromPhoneEngineE @ 27 NONAME
	_ZN15CPECallHandling20DoUnattendedTransferERK7TDesC16 @ 28 NONAME
	_ZN15CPECallHandling20ForwardCallToAddressEi @ 29 NONAME
	_ZN15CPECallHandling23TerminateAllConnectionsEv @ 30 NONAME
	_ZN15CPECallHandling24AcceptUnattendedTransferEv @ 31 NONAME
	_ZN15CPECallHandling24RejectUnattendedTransferEv @ 32 NONAME
	_ZN15CPECallHandling4NewLER21MPEPhoneModelInternalR4CCCER17MCCEDtmfInterface @ 33 NONAME
	_ZN15CPECallHandling6HangUpEi16TPEHangUpOptions @ 34 NONAME
	_ZN15CPECallHandling7StartUpEv @ 35 NONAME
	_ZN15CPECallHandling8DialCallERK4TBufILi100EERi @ 36 NONAME
	_ZN15CPECallHandling8HoldCallEv @ 37 NONAME
	_ZN15CPECallHandling8SendDtmfERK4TBufILi100EE @ 38 NONAME
	_ZN15CPECallHandling9SwapCallsEv @ 39 NONAME
	_ZN15CPECallHandlingD0Ev @ 40 NONAME
	_ZN15CPECallHandlingD1Ev @ 41 NONAME
	_ZN15CPECallHandlingD2Ev @ 42 NONAME
	_ZN15CPEDtmfHandling10ConstructLEv @ 43 NONAME
	_ZN15CPEDtmfHandling15HandleDTMFEventEN16MCCEDtmfObserver13TCCEDtmfEventEi5TChar @ 44 NONAME
	_ZN15CPEDtmfHandling4NewLER15CPECallHandlingR17MCCEDtmfInterface @ 45 NONAME
	_ZN15CPEDtmfHandlingC1ER15CPECallHandlingR17MCCEDtmfInterface @ 46 NONAME
	_ZN15CPEDtmfHandlingC2ER15CPECallHandlingR17MCCEDtmfInterface @ 47 NONAME
	_ZN15CPEDtmfHandlingD0Ev @ 48 NONAME
	_ZN15CPEDtmfHandlingD1Ev @ 49 NONAME
	_ZN15CPEDtmfHandlingD2Ev @ 50 NONAME
	_ZN17CPEConferenceCall13ErrorOccurredE23TCCPConferenceCallError @ 51 NONAME
	_ZN17CPEConferenceCall15CallCapsChangedEN26MCCEConferenceCallObserver22TCCEConferenceCallCapsE @ 52 NONAME
	_ZN17CPEConferenceCall16CallStateChangedEN26MCCEConferenceCallObserver23TCCEConferenceCallStateE @ 53 NONAME
	_ZN17CPEConferenceCall17CallEventOccurredEN26MCCEConferenceCallObserver23TCCEConferenceCallEventEP8MCCECall @ 54 NONAME
	_ZN21CPESingleCallObserver13ErrorOccurredE9TCCPError @ 55 NONAME
	_ZN21CPESingleCallObserver14HandleTransferEiRK7TDesC16 @ 56 NONAME
	_ZN21CPESingleCallObserver15CallCapsChangedEN16MCCECallObserver19TCCECallControlCapsE @ 57 NONAME
	_ZN21CPESingleCallObserver16CallStateChangedEN7CCPCall10TCallStateE @ 58 NONAME
	_ZN21CPESingleCallObserver17CallEventOccurredEN16MCCECallObserver13TCCECallEventE @ 59 NONAME
	_ZN21CPESingleCallObserver19CallDurationChangedE20TTimeIntervalSeconds @ 60 NONAME
	_ZN21CPESingleCallObserver26CallStateChangedWithInbandEN7CCPCall10TCallStateE @ 61 NONAME
	_ZN31CPESupplementaryServicesMonitor16CLIEventOccurredEN14MCCESsObserver14TCCESsCLIEventE @ 62 NONAME
	_ZN31CPESupplementaryServicesMonitor20BarringEventOccurredEN14MCCESsObserver18TCCESsBarringEventE @ 63 NONAME
	_ZN31CPESupplementaryServicesMonitor20CallCugEventOccurredEN14MCCESsObserver14TCCESsCugEventE @ 64 NONAME
	_ZN31CPESupplementaryServicesMonitor24CallForwardEventOccurredEN14MCCESsObserver22TCCESsCallForwardEventERK7TDesC16 @ 65 NONAME
	_ZN31CPESupplementaryServicesMonitor26NotifyCurrentActiveALSLineEi @ 66 NONAME
	_ZN7CPECall16SendErrorMessageEi @ 67 NONAME
	_ZN7CPECallC1ER16MPEMessageSender @ 68 NONAME
	_ZN7CPECallC2ER16MPEMessageSender @ 69 NONAME
	_ZN7CPECallD0Ev @ 70 NONAME
	_ZN7CPECallD1Ev @ 71 NONAME
	_ZN7CPECallD2Ev @ 72 NONAME
	_ZNK15CPECallHandling13IsCallInStateEj @ 73 NONAME
	_ZNK15CPECallHandling16GetCallIdByStateEj @ 74 NONAME
	_ZNK15CPECallHandling20VoiceCallDataByStateEjRi @ 75 NONAME
	_ZNK15CPECallHandling28GetCallTerminatedDiagnosticsER4TBufILi128EE @ 76 NONAME
	_ZNK15CPECallHandling9CallOwnerEv @ 77 NONAME
	_ZNK17CPECallArrayOwner10CallByNameERK4TBufILi128EE @ 78 NONAME
	_ZNK17CPECallArrayOwner11CallByStateEj @ 79 NONAME
	_ZNK17CPECallArrayOwner12CallByCallIdEi @ 80 NONAME
	_ZNK17CPECallArrayOwner13IsCallByStateEj @ 81 NONAME
	_ZNK17CPECallArrayOwner14IsCallByCallIdEi @ 82 NONAME
	_ZNK17CPECallArrayOwner15ActiveCallCountEv @ 83 NONAME
	_ZTI13CPESingleCall @ 84 NONAME
	_ZTI15CPECallHandling @ 85 NONAME
	_ZTI15CPEDtmfHandling @ 86 NONAME
	_ZTI17CPECallArrayOwner @ 87 NONAME
	_ZTI17CPEConferenceCall @ 88 NONAME
	_ZTI18CPEGprsTermination @ 89 NONAME
	_ZTI18CPESystemCallState @ 90 NONAME
	_ZTI20CPEVideoCallHandling @ 91 NONAME
	_ZTI21CPESingleCallObserver @ 92 NONAME
	_ZTI31CPESupplementaryServicesMonitor @ 93 NONAME
	_ZTI7CPECall @ 94 NONAME
	_ZTV13CPESingleCall @ 95 NONAME
	_ZTV15CPECallHandling @ 96 NONAME
	_ZTV15CPEDtmfHandling @ 97 NONAME
	_ZTV17CPECallArrayOwner @ 98 NONAME
	_ZTV17CPEConferenceCall @ 99 NONAME
	_ZTV18CPEGprsTermination @ 100 NONAME
	_ZTV18CPESystemCallState @ 101 NONAME
	_ZTV20CPEVideoCallHandling @ 102 NONAME
	_ZTV21CPESingleCallObserver @ 103 NONAME
	_ZTV31CPESupplementaryServicesMonitor @ 104 NONAME
	_ZTV7CPECall @ 105 NONAME
	_ZThn24_N17CPEConferenceCall13ErrorOccurredE23TCCPConferenceCallError @ 106 NONAME
	_ZThn24_N17CPEConferenceCall15CallCapsChangedEN26MCCEConferenceCallObserver22TCCEConferenceCallCapsE @ 107 NONAME
	_ZThn24_N17CPEConferenceCall16CallStateChangedEN26MCCEConferenceCallObserver23TCCEConferenceCallStateE @ 108 NONAME
	_ZThn24_N17CPEConferenceCall17CallEventOccurredEN26MCCEConferenceCallObserver23TCCEConferenceCallEventEP8MCCECall @ 109 NONAME
	_ZThn24_N21CPESingleCallObserver13ErrorOccurredE9TCCPError @ 110 NONAME
	_ZThn24_N21CPESingleCallObserver14HandleTransferEiRK7TDesC16 @ 111 NONAME
	_ZThn24_N21CPESingleCallObserver15CallCapsChangedEN16MCCECallObserver19TCCECallControlCapsE @ 112 NONAME
	_ZThn24_N21CPESingleCallObserver16CallStateChangedEN7CCPCall10TCallStateE @ 113 NONAME
	_ZThn24_N21CPESingleCallObserver17CallEventOccurredEN16MCCECallObserver13TCCECallEventE @ 114 NONAME
	_ZThn24_N21CPESingleCallObserver19CallDurationChangedE20TTimeIntervalSeconds @ 115 NONAME
	_ZThn24_N21CPESingleCallObserver26CallStateChangedWithInbandEN7CCPCall10TCallStateE @ 116 NONAME
	_ZThn4_N15CPEDtmfHandling15HandleDTMFEventEN16MCCEDtmfObserver13TCCEDtmfEventEi5TChar @ 117 NONAME
	_ZThn4_NK17CPECallArrayOwner10CallByNameERK4TBufILi128EE @ 118 NONAME
	_ZThn4_NK17CPECallArrayOwner11CallByStateEj @ 119 NONAME
	_ZThn4_NK17CPECallArrayOwner12CallByCallIdEi @ 120 NONAME
	_ZThn4_NK17CPECallArrayOwner13IsCallByStateEj @ 121 NONAME
	_ZThn4_NK17CPECallArrayOwner14IsCallByCallIdEi @ 122 NONAME
	_ZThn4_NK17CPECallArrayOwner15ActiveCallCountEv @ 123 NONAME
	_ZThn8_N15CPECallHandling10AnswerCallEv @ 124 NONAME
	_ZThn8_N15CPECallHandling10DropMemberEi @ 125 NONAME
	_ZThn8_N15CPECallHandling10GoOneToOneEi @ 126 NONAME
	_ZThn8_N15CPECallHandling10RejectCallEv @ 127 NONAME
	_ZThn8_N15CPECallHandling10ReleaseAllEv @ 128 NONAME
	_ZThn8_N15CPECallHandling10ResumeCallEv @ 129 NONAME
	_ZThn8_N15CPECallHandling11GetCallInfoERN11RMobileCall17TMobileCallInfoV3Ei @ 130 NONAME
	_ZThn8_N15CPECallHandling11GetLifeTimeER5TDes8 @ 131 NONAME
	_ZThn8_N15CPECallHandling12GetCallStateEi @ 132 NONAME
	_ZThn8_N15CPECallHandling12StopDtmfToneEv @ 133 NONAME
	_ZThn8_N15CPECallHandling13GetMissedCallERii @ 134 NONAME
	_ZThn8_N15CPECallHandling13ReplaceActiveEv @ 135 NONAME
	_ZThn8_N15CPECallHandling13SetActiveLineEv @ 136 NONAME
	_ZThn8_N15CPECallHandling13StartDtmfToneERK5TChar @ 137 NONAME
	_ZThn8_N15CPECallHandling13TransferCallsEv @ 138 NONAME
	_ZThn8_N15CPECallHandling14CancelDtmfPlayEv @ 139 NONAME
	_ZThn8_N15CPECallHandling14DialMultimediaERK4TBufILi100EERi @ 140 NONAME
	_ZThn8_N15CPECallHandling15BuildConferenceEv @ 141 NONAME
	_ZThn8_N15CPECallHandling15GetCallDurationER20TTimeIntervalSecondsi @ 142 NONAME
	_ZThn8_N15CPECallHandling15StopDtmfSendingEv @ 143 NONAME
	_ZThn8_N15CPECallHandling16GetNumberOfCallsEv @ 144 NONAME
	_ZThn8_N15CPECallHandling17DialEmergencyCallERK4TBufILi100EE @ 145 NONAME
	_ZThn8_N15CPECallHandling19AddConferenceMemberEv @ 146 NONAME
	_ZThn8_N15CPECallHandling19CallTerminatedErrorEi @ 147 NONAME
	_ZThn8_N15CPECallHandling19ContinueDtmfSendingEv @ 148 NONAME
	_ZThn8_N15CPECallHandling19UpdatePhoneIdentityEN14MEngineMonitor26TPEMessagesFromPhoneEngineE @ 149 NONAME
	_ZThn8_N15CPECallHandling20DoUnattendedTransferERK7TDesC16 @ 150 NONAME
	_ZThn8_N15CPECallHandling20ForwardCallToAddressEi @ 151 NONAME
	_ZThn8_N15CPECallHandling23TerminateAllConnectionsEv @ 152 NONAME
	_ZThn8_N15CPECallHandling24AcceptUnattendedTransferEv @ 153 NONAME
	_ZThn8_N15CPECallHandling24RejectUnattendedTransferEv @ 154 NONAME
	_ZThn8_N15CPECallHandling6HangUpEi16TPEHangUpOptions @ 155 NONAME
	_ZThn8_N15CPECallHandling7StartUpEv @ 156 NONAME
	_ZThn8_N15CPECallHandling8DialCallERK4TBufILi100EERi @ 157 NONAME
	_ZThn8_N15CPECallHandling8HoldCallEv @ 158 NONAME
	_ZThn8_N15CPECallHandling8SendDtmfERK4TBufILi100EE @ 159 NONAME
	_ZThn8_N15CPECallHandling9SwapCallsEv @ 160 NONAME
	_ZThn8_N15CPECallHandlingD0Ev @ 161 NONAME
	_ZThn8_N15CPECallHandlingD1Ev @ 162 NONAME
	_ZThn8_NK15CPECallHandling13IsCallInStateEj @ 163 NONAME
	_ZThn8_NK15CPECallHandling16GetCallIdByStateEj @ 164 NONAME
	_ZThn8_NK15CPECallHandling28GetCallTerminatedDiagnosticsER4TBufILi128EE @ 165 NONAME
	_ZThn8_NK15CPECallHandling9CallOwnerEv @ 166 NONAME

