EXPORTS
	_ZN11CPhoneState10ShowQueryLEi @ 1 NONAME
	_ZN11CPhoneState11EndUiUpdateEv @ 2 NONAME
	_ZN11CPhoneState11IsVideoCallEi @ 3 NONAME
	_ZN11CPhoneState12HandleErrorLERK12TPEErrorInfo @ 4 NONAME
	_ZN11CPhoneState13EnableCallUILEv @ 5 NONAME
	_ZN11CPhoneState14BaseConstructLEv @ 6 NONAME
	_ZN11CPhoneState14DialVoiceCallLEv @ 7 NONAME
	_ZN11CPhoneState14DisableCallUILEv @ 8 NONAME
	_ZN11CPhoneState14DisableHWKeysLEv @ 9 NONAME
	_ZN11CPhoneState14HandleCommandLEi @ 10 NONAME
	_ZN11CPhoneState14ShowTextQueryLEiiiP6TDes16i @ 11 NONAME
	_ZN11CPhoneState15BeginUiUpdateLCEv @ 12 NONAME
	_ZN11CPhoneState15DisconnectCallLEv @ 13 NONAME
	_ZN11CPhoneState15HandleKeyEventLERK9TKeyEvent10TEventCode @ 14 NONAME
	_ZN11CPhoneState15ProcessCommandLEi @ 15 NONAME
	_ZN11CPhoneState16CallWaitingNoteLEi @ 16 NONAME
	_ZN11CPhoneState16SetDefaultFlagsLEv @ 17 NONAME
	_ZN11CPhoneState17HandleHoldSwitchLEv @ 18 NONAME
	_ZN11CPhoneState17HandleKeyMessageLEN15MPhoneKeyEvents22TPhoneKeyEventMessagesE8TKeyCode @ 19 NONAME
	_ZN11CPhoneState17IsAnyQueryActiveLEv @ 20 NONAME
	_ZN11CPhoneState17SetCallHeaderTypeEi @ 21 NONAME
	_ZN11CPhoneState17SetHandsfreeModeLEi @ 22 NONAME
	_ZN11CPhoneState18DisplayIdleScreenLEv @ 23 NONAME
	_ZN11CPhoneState18GetRemoteInfoDataLEiR6TDes16 @ 24 NONAME
	_ZN11CPhoneState18HandleDtmfKeyToneLERK9TKeyEvent10TEventCode @ 25 NONAME
	_ZN11CPhoneState18HandleSystemEventLERK8TWsEvent @ 26 NONAME
	_ZN11CPhoneState18IsNumberEntryUsedLEv @ 27 NONAME
	_ZN11CPhoneState19CompleteSatRequestLEi @ 28 NONAME
	_ZN11CPhoneState19DialMultimediaCallLEv @ 29 NONAME
	_ZN11CPhoneState19HandleCenRepChangeLERK4TUidj @ 30 NONAME
	_ZN11CPhoneState19HandlePhoneStartupLEv @ 31 NONAME
	_ZN11CPhoneState19SendGlobalInfoNoteLEii @ 32 NONAME
	_ZN11CPhoneState19SetBTHandsfreeModeLEi @ 33 NONAME
	_ZN11CPhoneState19SetBackButtonActiveEi @ 34 NONAME
	_ZN11CPhoneState19SetDivertIndicationEi @ 35 NONAME
	_ZN11CPhoneState19SetTouchPaneButtonsEi @ 36 NONAME
	_ZN11CPhoneState19ShowNumberBusyNoteLEv @ 37 NONAME
	_ZN11CPhoneState20CallFromNumberEntryLEv @ 38 NONAME
	_ZN11CPhoneState20DecreaseAudioVolumeLEv @ 39 NONAME
	_ZN11CPhoneState20HandleDisconnectingLEi @ 40 NONAME
	_ZN11CPhoneState20HandleKeyLockEnabledEi @ 41 NONAME
	_ZN11CPhoneState20HandleRemConCommandLE25TRemConCoreApiOperationId26TRemConCoreApiButtonAction @ 42 NONAME
	_ZN11CPhoneState20IncreaseAudioVolumeLEv @ 43 NONAME
	_ZN11CPhoneState20SendGlobalErrorNoteLEii @ 44 NONAME
	_ZN11CPhoneState21IsNumberEntryVisibleLEv @ 45 NONAME
	_ZN11CPhoneState21UpdateRemoteInfoDataLEi @ 46 NONAME
	_ZN11CPhoneState22DeleteTouchPaneButtonsEv @ 47 NONAME
	_ZN11CPhoneState22HandleForegroundEventLEi @ 48 NONAME
	_ZN11CPhoneState22HandlePropertyChangedLERK4TUidji @ 49 NONAME
	_ZN11CPhoneState22PhoneNumberFromEntryLCEv @ 50 NONAME
	_ZN11CPhoneState22SendGlobalWarningNoteLEii @ 51 NONAME
	_ZN11CPhoneState22StartShowSecurityNoteLEv @ 52 NONAME
	_ZN11CPhoneState23HandleAudioMuteChangedLEv @ 53 NONAME
	_ZN11CPhoneState23SetRingingTonePlaybackLEi @ 54 NONAME
	_ZN11CPhoneState23UpdateSingleActiveCallLEi @ 55 NONAME
	_ZN11CPhoneState24StoreNumberEntryContentLEv @ 56 NONAME
	_ZN11CPhoneState25HandleAudioOutputChangedLEv @ 57 NONAME
	_ZN11CPhoneState25HandleNumberEntryClearedLEv @ 58 NONAME
	_ZN11CPhoneState25HandlePhoneEngineMessageLEii @ 59 NONAME
	_ZN11CPhoneState25SetNumberEntryVisibilityLEi @ 60 NONAME
	_ZN11CPhoneState26HandleIdleForegroundEventLEv @ 61 NONAME
	_ZN11CPhoneState26HandlePhoneFocusLostEventLEv @ 62 NONAME
	_ZN11CPhoneState26IsNumberEntryContentStoredEv @ 63 NONAME
	_ZN11CPhoneState27DisplayCallTerminationNoteLEv @ 64 NONAME
	_ZN11CPhoneState27HandlePhoneForegroundEventLEv @ 65 NONAME
	_ZN11CPhoneState27RetainPreviousKeylockStateLEv @ 66 NONAME
	_ZN11CPhoneState28CheckDisableHWKeysAndCallUILEv @ 67 NONAME
	_ZN11CPhoneState28ClearNumberEntryContentCacheEv @ 68 NONAME
	_ZN11CPhoneState28OpenSoftRejectMessageEditorLEv @ 69 NONAME
	_ZN11CPhoneState28SetupIdleScreenInBackgroundLEv @ 70 NONAME
	_ZN11CPhoneState29DisplayHeaderForCallComingInLEii @ 71 NONAME
	_ZN11CPhoneState29DisplayHeaderForOutgoingCallLEi @ 72 NONAME
	_ZN11CPhoneState30CheckIfShowCallTerminationNoteEv @ 73 NONAME
	_ZN11CPhoneState34SetCallHeaderTextsForCallComingInLEiiP28TPhoneCmdParamCallHeaderData @ 74 NONAME
	_ZN11CPhoneState34SetToolbarButtonLoudspeakerEnabledEv @ 75 NONAME
	_ZN11CPhoneState35IsAlphanumericSupportedAndCharInputERK9TKeyEvent @ 76 NONAME
	_ZN11CPhoneState43IsSimStateNotPresentWithSecurityModeEnabledEv @ 77 NONAME
	_ZN11CPhoneState7IsSimOkEv @ 78 NONAME
	_ZN11CPhoneState9ShowNoteLEi @ 79 NONAME
	_ZN11CPhoneStateC1EP18MPhoneStateMachineP23MPhoneViewCommandHandleP19MPhoneCustomization @ 80 NONAME
	_ZN11CPhoneStateC2EP18MPhoneStateMachineP23MPhoneViewCommandHandleP19MPhoneCustomization @ 81 NONAME
	_ZN11CPhoneStateD0Ev @ 82 NONAME
	_ZN11CPhoneStateD1Ev @ 83 NONAME
	_ZN11CPhoneStateD2Ev @ 84 NONAME
	_ZN15CPhoneStateIdle10ConstructLEv @ 85 NONAME
	_ZN15CPhoneStateIdle14DialVoiceCallLEv @ 86 NONAME
	_ZN15CPhoneStateIdle14HandleCommandLEi @ 87 NONAME
	_ZN15CPhoneStateIdle14HandleDialingLEi @ 88 NONAME
	_ZN15CPhoneStateIdle15HandleKeyEventLERK9TKeyEvent10TEventCode @ 89 NONAME
	_ZN15CPhoneStateIdle15ProcessCommandLEi @ 90 NONAME
	_ZN15CPhoneStateIdle17DisplayCallSetupLEi @ 91 NONAME
	_ZN15CPhoneStateIdle17HandleKeyMessageLEN15MPhoneKeyEvents22TPhoneKeyEventMessagesE8TKeyCode @ 92 NONAME
	_ZN15CPhoneStateIdle18HandleSendCommandLEv @ 93 NONAME
	_ZN15CPhoneStateIdle19DialMultimediaCallLEv @ 94 NONAME
	_ZN15CPhoneStateIdle20DisplayIncomingCallLEi @ 95 NONAME
	_ZN15CPhoneStateIdle20HandleRemConCommandLE25TRemConCoreApiOperationId26TRemConCoreApiButtonAction @ 96 NONAME
	_ZN15CPhoneStateIdle25HandleNumberEntryClearedLEv @ 97 NONAME
	_ZN15CPhoneStateIdle25HandlePhoneEngineMessageLEii @ 98 NONAME
	_ZN15CPhoneStateIdle26HandleIdleForegroundEventLEv @ 99 NONAME
	_ZN15CPhoneStateIdle26HandlePhoneFocusLostEventLEv @ 100 NONAME
	_ZN15CPhoneStateIdle27HandlePhoneForegroundEventLEv @ 101 NONAME
	_ZN15CPhoneStateIdle5DialLERK7TDesC16NS_16TPhoneNumberTypeENS_21TDialInitiationMethodE @ 102 NONAME
	_ZN15CPhoneStateIdleC1EP18MPhoneStateMachineP23MPhoneViewCommandHandleP19MPhoneCustomization @ 103 NONAME
	_ZN15CPhoneStateIdleC2EP18MPhoneStateMachineP23MPhoneViewCommandHandleP19MPhoneCustomization @ 104 NONAME
	_ZN15CPhoneStateIdleD0Ev @ 105 NONAME
	_ZN15CPhoneStateIdleD1Ev @ 106 NONAME
	_ZN15CPhoneStateIdleD2Ev @ 107 NONAME
	_ZN16CPhoneCbaManager10UpdateCbaLEi @ 108 NONAME
	_ZN16CPhoneCbaManager18UpdateIncomingCbaLEi @ 109 NONAME
	_ZN16CPhoneCbaManager7SetCbaLEi @ 110 NONAME
	_ZN17CPhoneStateHandle12StateMachineEv @ 111 NONAME
	_ZN17CPhoneStateHandle17ViewCommandHandleEv @ 112 NONAME
	_ZN17CPhoneStateHandle8InstanceEv @ 113 NONAME
	_ZN17CPhoneStateInCall10ConstructLEv @ 114 NONAME
	_ZN17CPhoneStateInCall10UpdateCbaLEi @ 115 NONAME
	_ZN17CPhoneStateInCall11HandleIdleLEi @ 116 NONAME
	_ZN17CPhoneStateInCall14HandleCommandLEi @ 117 NONAME
	_ZN17CPhoneStateInCall15GetRingingCallLEv @ 118 NONAME
	_ZN17CPhoneStateInCall16UpdateInCallCbaLEv @ 119 NONAME
	_ZN17CPhoneStateInCall17HandleKeyMessageLEN15MPhoneKeyEvents22TPhoneKeyEventMessagesE8TKeyCode @ 120 NONAME
	_ZN17CPhoneStateInCall18CallFetchedNumberLERK7TDesC16 @ 121 NONAME
	_ZN17CPhoneStateInCall18IsVideoCallActiveLEv @ 122 NONAME
	_ZN17CPhoneStateInCall19IsVideoCallRingingLEv @ 123 NONAME
	_ZN17CPhoneStateInCall23DisconnectOutgoingCallLEv @ 124 NONAME
	_ZN17CPhoneStateInCall25HandleNumberEntryClearedLEv @ 125 NONAME
	_ZN17CPhoneStateInCall25HandlePhoneEngineMessageLEii @ 126 NONAME
	_ZN17CPhoneStateInCallC1EP18MPhoneStateMachineP23MPhoneViewCommandHandleP19MPhoneCustomization @ 127 NONAME
	_ZN17CPhoneStateInCallC2EP18MPhoneStateMachineP23MPhoneViewCommandHandleP19MPhoneCustomization @ 128 NONAME
	_ZN17CPhoneStateInCallD0Ev @ 129 NONAME
	_ZN17CPhoneStateInCallD1Ev @ 130 NONAME
	_ZN17CPhoneStateInCallD2Ev @ 131 NONAME
	_ZN18CPhoneStateMachine11ChangeStateEi @ 132 NONAME
	_ZN18CPhoneStateMachine11PhoneEngineEv @ 133 NONAME
	_ZN18CPhoneStateMachine12PhoneStorageEv @ 134 NONAME
	_ZN18CPhoneStateMachine14SetPhoneEngineEP13MPEPhoneModel @ 135 NONAME
	_ZN18CPhoneStateMachine15PhoneEngineInfoEv @ 136 NONAME
	_ZN18CPhoneStateMachine18CreatePhoneEngineLER14MEngineMonitor @ 137 NONAME
	_ZN18CPhoneStateMachine22SendPhoneEngineMessageEi @ 138 NONAME
	_ZN18CPhoneStateMachine5StateEv @ 139 NONAME
	_ZN18CPhoneStateMachine9SetCallIdEi @ 140 NONAME
	_ZN18CPhoneStateMachineC1EP23MPhoneViewCommandHandle @ 141 NONAME
	_ZN18CPhoneStateMachineC2EP23MPhoneViewCommandHandle @ 142 NONAME
	_ZN18CPhoneStateMachineD0Ev @ 143 NONAME
	_ZN18CPhoneStateMachineD1Ev @ 144 NONAME
	_ZN18CPhoneStateMachineD2Ev @ 145 NONAME
	_ZN18CPhoneStateStartup10ConstructLEv @ 146 NONAME
	_ZN18CPhoneStateStartup15HandleKeyEventLERK9TKeyEvent10TEventCode @ 147 NONAME
	_ZN18CPhoneStateStartup17HandleKeyMessageLEN15MPhoneKeyEvents22TPhoneKeyEventMessagesE8TKeyCode @ 148 NONAME
	_ZN18CPhoneStateStartup18HandleDtmfKeyToneLERK9TKeyEvent10TEventCode @ 149 NONAME
	_ZN18CPhoneStateStartup19HandlePhoneStartupLEv @ 150 NONAME
	_ZN18CPhoneStateStartup25HandlePhoneEngineMessageLEii @ 151 NONAME
	_ZN18CPhoneStateStartup26HandleIdleForegroundEventLEv @ 152 NONAME
	_ZN18CPhoneStateStartup4NewLEP18MPhoneStateMachineP23MPhoneViewCommandHandleP19MPhoneCustomization @ 153 NONAME
	_ZN18CPhoneStateStartupC1EP18MPhoneStateMachineP23MPhoneViewCommandHandleP19MPhoneCustomization @ 154 NONAME
	_ZN18CPhoneStateStartupC2EP18MPhoneStateMachineP23MPhoneViewCommandHandleP19MPhoneCustomization @ 155 NONAME
	_ZN18CPhoneStateStartupD0Ev @ 156 NONAME
	_ZN18CPhoneStateStartupD1Ev @ 157 NONAME
	_ZN18CPhoneStateStartupD2Ev @ 158 NONAME
	_ZN18CPhoneUIController11HandleErrorERK12TPEErrorInfo @ 159 NONAME
	_ZN18CPhoneUIController13HandleMessageEii @ 160 NONAME
	_ZN18CPhoneUIController14HandleCommandLEi @ 161 NONAME
	_ZN18CPhoneUIController15HandleKeyEventLERK9TKeyEvent10TEventCode @ 162 NONAME
	_ZN18CPhoneUIController15ProcessCommandLEi @ 163 NONAME
	_ZN18CPhoneUIController18HandleSystemEventLERK8TWsEvent @ 164 NONAME
	_ZN18CPhoneUIController19HandlePhoneStartupLEv @ 165 NONAME
	_ZN18CPhoneUIController20HandleKeyLockEnabledEi @ 166 NONAME
	_ZN18CPhoneUIController22HandleForegroundEventLEi @ 167 NONAME
	_ZN18CPhoneUIController26HandleIdleForegroundEventLEv @ 168 NONAME
	_ZN18CPhoneUIController26HandlePhoneFocusLostEventLEv @ 169 NONAME
	_ZN18CPhoneUIController27HandlePhoneForegroundEventLEv @ 170 NONAME
	_ZN18CPhoneUIController4NewLEP23MPhoneViewCommandHandle @ 171 NONAME
	_ZN18CPhoneUIControllerD0Ev @ 172 NONAME
	_ZN18CPhoneUIControllerD1Ev @ 173 NONAME
	_ZN18CPhoneUIControllerD2Ev @ 174 NONAME
	_ZN19CPhoneStateIncoming10ConstructLEv @ 175 NONAME
	_ZN19CPhoneStateIncoming14HandleCommandLEi @ 176 NONAME
	_ZN19CPhoneStateIncoming15HandleKeyEventLERK9TKeyEvent10TEventCode @ 177 NONAME
	_ZN19CPhoneStateIncoming17HandleKeyMessageLEN15MPhoneKeyEvents22TPhoneKeyEventMessagesE8TKeyCode @ 178 NONAME
	_ZN19CPhoneStateIncoming20HandleKeyLockEnabledEi @ 179 NONAME
	_ZN19CPhoneStateIncoming23HandleAudioPlayStoppedLEv @ 180 NONAME
	_ZN19CPhoneStateIncoming25HandleNumberEntryClearedLEv @ 181 NONAME
	_ZN19CPhoneStateIncoming25HandlePhoneEngineMessageLEii @ 182 NONAME
	_ZN19CPhoneStateIncomingC1EP18MPhoneStateMachineP23MPhoneViewCommandHandleP19MPhoneCustomization @ 183 NONAME
	_ZN19CPhoneStateIncomingC2EP18MPhoneStateMachineP23MPhoneViewCommandHandleP19MPhoneCustomization @ 184 NONAME
	_ZN19CPhoneStateIncomingD0Ev @ 185 NONAME
	_ZN19CPhoneStateIncomingD1Ev @ 186 NONAME
	_ZN19CPhoneStateIncomingD2Ev @ 187 NONAME
	_ZN20CPhoneStateCallSetup10ConstructLEv @ 188 NONAME
	_ZN20CPhoneStateCallSetup10UpdateCbaLEi @ 189 NONAME
	_ZN20CPhoneStateCallSetup14HandleCommandLEi @ 190 NONAME
	_ZN20CPhoneStateCallSetup15HandleKeyEventLERK9TKeyEvent10TEventCode @ 191 NONAME
	_ZN20CPhoneStateCallSetup16UpdateInCallCbaLEv @ 192 NONAME
	_ZN20CPhoneStateCallSetup17HandleKeyMessageLEN15MPhoneKeyEvents22TPhoneKeyEventMessagesE8TKeyCode @ 193 NONAME
	_ZN20CPhoneStateCallSetup25HandleNumberEntryClearedLEv @ 194 NONAME
	_ZN20CPhoneStateCallSetup25HandlePhoneEngineMessageLEii @ 195 NONAME
	_ZN20CPhoneStateCallSetupC1EP18MPhoneStateMachineP23MPhoneViewCommandHandleP19MPhoneCustomization @ 196 NONAME
	_ZN20CPhoneStateCallSetupC2EP18MPhoneStateMachineP23MPhoneViewCommandHandleP19MPhoneCustomization @ 197 NONAME
	_ZN20CPhoneStateCallSetupD0Ev @ 198 NONAME
	_ZN20CPhoneStateCallSetupD1Ev @ 199 NONAME
	_ZN20CPhoneStateCallSetupD2Ev @ 200 NONAME
	_ZNK11CPhoneState11IsKeyLockOnEv @ 201 NONAME
	_ZNK11CPhoneState12IsAutoLockOnEv @ 202 NONAME
	_ZNK11CPhoneState14IsSwivelClosedEv @ 203 NONAME
	_ZNK11CPhoneState17GetBlockedKeyListEv @ 204 NONAME
	_ZNK11CPhoneState18TopAppIsDisplayedLEv @ 205 NONAME
	_ZNK11CPhoneState23NeedToSendToBackgroundLEv @ 206 NONAME
	_ZNK11CPhoneState26IsCustomizedDialerVisibleLEv @ 207 NONAME
	_ZNK11CPhoneState8SimStateEv @ 208 NONAME
	_ZTI11CPhoneState @ 209 NONAME
	_ZTI15CPhoneStateIdle @ 210 NONAME
	_ZTI17CPhoneStateHandle @ 211 NONAME
	_ZTI17CPhoneStateInCall @ 212 NONAME
	_ZTI18CPhoneStateMachine @ 213 NONAME
	_ZTI18CPhoneStateStartup @ 214 NONAME
	_ZTI18CPhoneUIController @ 215 NONAME
	_ZTI19CPhoneStateIncoming @ 216 NONAME
	_ZTI20CPhoneStateCallSetup @ 217 NONAME
	_ZTI23CPhoneDtmfWaitCharTimer @ 218 NONAME
	_ZTI24CPhoneSystemEventHandler @ 219 NONAME
	_ZTI26CPhoneRemoteControlHandler @ 220 NONAME
	_ZTI27CPhoneBtaaDisconnectHandler @ 221 NONAME
	_ZTV11CPhoneState @ 222 NONAME
	_ZTV15CPhoneStateIdle @ 223 NONAME
	_ZTV17CPhoneStateHandle @ 224 NONAME
	_ZTV17CPhoneStateInCall @ 225 NONAME
	_ZTV18CPhoneStateMachine @ 226 NONAME
	_ZTV18CPhoneStateStartup @ 227 NONAME
	_ZTV18CPhoneUIController @ 228 NONAME
	_ZTV19CPhoneStateIncoming @ 229 NONAME
	_ZTV20CPhoneStateCallSetup @ 230 NONAME
	_ZTV23CPhoneDtmfWaitCharTimer @ 231 NONAME
	_ZTV24CPhoneSystemEventHandler @ 232 NONAME
	_ZTV26CPhoneRemoteControlHandler @ 233 NONAME
	_ZTV27CPhoneBtaaDisconnectHandler @ 234 NONAME
	_ZThn12_N11CPhoneState18HandleSystemEventLERK8TWsEvent @ 235 NONAME
	_ZThn12_N11CPhoneState19HandleCenRepChangeLERK4TUidj @ 236 NONAME
	_ZThn12_N11CPhoneState19HandlePhoneStartupLEv @ 237 NONAME
	_ZThn12_N11CPhoneState20HandleKeyLockEnabledEi @ 238 NONAME
	_ZThn12_N11CPhoneState22HandleForegroundEventLEi @ 239 NONAME
	_ZThn12_N11CPhoneState22HandlePropertyChangedLERK4TUidji @ 240 NONAME
	_ZThn12_N11CPhoneState26HandleIdleForegroundEventLEv @ 241 NONAME
	_ZThn12_N11CPhoneState26HandlePhoneFocusLostEventLEv @ 242 NONAME
	_ZThn12_N11CPhoneState27HandlePhoneForegroundEventLEv @ 243 NONAME
	_ZThn12_N11CPhoneStateD0Ev @ 244 NONAME
	_ZThn12_N11CPhoneStateD1Ev @ 245 NONAME
	_ZThn12_N15CPhoneStateIdle26HandleIdleForegroundEventLEv @ 246 NONAME
	_ZThn12_N15CPhoneStateIdle26HandlePhoneFocusLostEventLEv @ 247 NONAME
	_ZThn12_N15CPhoneStateIdle27HandlePhoneForegroundEventLEv @ 248 NONAME
	_ZThn12_N15CPhoneStateIdleD0Ev @ 249 NONAME
	_ZThn12_N15CPhoneStateIdleD1Ev @ 250 NONAME
	_ZThn12_N17CPhoneStateInCallD0Ev @ 251 NONAME
	_ZThn12_N17CPhoneStateInCallD1Ev @ 252 NONAME
	_ZThn12_N18CPhoneStateStartup19HandlePhoneStartupLEv @ 253 NONAME
	_ZThn12_N18CPhoneStateStartup26HandleIdleForegroundEventLEv @ 254 NONAME
	_ZThn12_N18CPhoneStateStartupD0Ev @ 255 NONAME
	_ZThn12_N18CPhoneStateStartupD1Ev @ 256 NONAME
	_ZThn12_N18CPhoneUIController18HandleSystemEventLERK8TWsEvent @ 257 NONAME
	_ZThn12_N18CPhoneUIController19HandlePhoneStartupLEv @ 258 NONAME
	_ZThn12_N18CPhoneUIController20HandleKeyLockEnabledEi @ 259 NONAME
	_ZThn12_N18CPhoneUIController22HandleForegroundEventLEi @ 260 NONAME
	_ZThn12_N18CPhoneUIController26HandleIdleForegroundEventLEv @ 261 NONAME
	_ZThn12_N18CPhoneUIController26HandlePhoneFocusLostEventLEv @ 262 NONAME
	_ZThn12_N18CPhoneUIController27HandlePhoneForegroundEventLEv @ 263 NONAME
	_ZThn12_N18CPhoneUIControllerD0Ev @ 264 NONAME
	_ZThn12_N18CPhoneUIControllerD1Ev @ 265 NONAME
	_ZThn12_N19CPhoneStateIncoming20HandleKeyLockEnabledEi @ 266 NONAME
	_ZThn12_N19CPhoneStateIncomingD0Ev @ 267 NONAME
	_ZThn12_N19CPhoneStateIncomingD1Ev @ 268 NONAME
	_ZThn12_N20CPhoneStateCallSetupD0Ev @ 269 NONAME
	_ZThn12_N20CPhoneStateCallSetupD1Ev @ 270 NONAME
	_ZThn16_N11CPhoneState14HandleCommandLEi @ 271 NONAME
	_ZThn16_N11CPhoneState15ProcessCommandLEi @ 272 NONAME
	_ZThn16_N11CPhoneStateD0Ev @ 273 NONAME
	_ZThn16_N11CPhoneStateD1Ev @ 274 NONAME
	_ZThn16_N15CPhoneStateIdle14HandleCommandLEi @ 275 NONAME
	_ZThn16_N15CPhoneStateIdle15ProcessCommandLEi @ 276 NONAME
	_ZThn16_N15CPhoneStateIdleD0Ev @ 277 NONAME
	_ZThn16_N15CPhoneStateIdleD1Ev @ 278 NONAME
	_ZThn16_N17CPhoneStateInCall14HandleCommandLEi @ 279 NONAME
	_ZThn16_N17CPhoneStateInCallD0Ev @ 280 NONAME
	_ZThn16_N17CPhoneStateInCallD1Ev @ 281 NONAME
	_ZThn16_N18CPhoneStateStartupD0Ev @ 282 NONAME
	_ZThn16_N18CPhoneStateStartupD1Ev @ 283 NONAME
	_ZThn16_N18CPhoneUIController14HandleCommandLEi @ 284 NONAME
	_ZThn16_N18CPhoneUIController15ProcessCommandLEi @ 285 NONAME
	_ZThn16_N18CPhoneUIControllerD0Ev @ 286 NONAME
	_ZThn16_N18CPhoneUIControllerD1Ev @ 287 NONAME
	_ZThn16_N19CPhoneStateIncoming14HandleCommandLEi @ 288 NONAME
	_ZThn16_N19CPhoneStateIncomingD0Ev @ 289 NONAME
	_ZThn16_N19CPhoneStateIncomingD1Ev @ 290 NONAME
	_ZThn16_N20CPhoneStateCallSetup14HandleCommandLEi @ 291 NONAME
	_ZThn16_N20CPhoneStateCallSetupD0Ev @ 292 NONAME
	_ZThn16_N20CPhoneStateCallSetupD1Ev @ 293 NONAME
	_ZThn20_N11CPhoneState20HandleRemConCommandLE25TRemConCoreApiOperationId26TRemConCoreApiButtonAction @ 294 NONAME
	_ZThn20_N11CPhoneStateD0Ev @ 295 NONAME
	_ZThn20_N11CPhoneStateD1Ev @ 296 NONAME
	_ZThn20_N15CPhoneStateIdle20HandleRemConCommandLE25TRemConCoreApiOperationId26TRemConCoreApiButtonAction @ 297 NONAME
	_ZThn20_N15CPhoneStateIdleD0Ev @ 298 NONAME
	_ZThn20_N15CPhoneStateIdleD1Ev @ 299 NONAME
	_ZThn20_N17CPhoneStateInCallD0Ev @ 300 NONAME
	_ZThn20_N17CPhoneStateInCallD1Ev @ 301 NONAME
	_ZThn20_N18CPhoneStateStartupD0Ev @ 302 NONAME
	_ZThn20_N18CPhoneStateStartupD1Ev @ 303 NONAME
	_ZThn20_N19CPhoneStateIncomingD0Ev @ 304 NONAME
	_ZThn20_N19CPhoneStateIncomingD1Ev @ 305 NONAME
	_ZThn20_N20CPhoneStateCallSetupD0Ev @ 306 NONAME
	_ZThn20_N20CPhoneStateCallSetupD1Ev @ 307 NONAME
	_ZThn24_N11CPhoneState19SetDivertIndicationEi @ 308 NONAME
	_ZThn24_N11CPhoneStateD0Ev @ 309 NONAME
	_ZThn24_N11CPhoneStateD1Ev @ 310 NONAME
	_ZThn24_N15CPhoneStateIdleD0Ev @ 311 NONAME
	_ZThn24_N15CPhoneStateIdleD1Ev @ 312 NONAME
	_ZThn24_N17CPhoneStateInCallD0Ev @ 313 NONAME
	_ZThn24_N17CPhoneStateInCallD1Ev @ 314 NONAME
	_ZThn24_N18CPhoneStateStartupD0Ev @ 315 NONAME
	_ZThn24_N18CPhoneStateStartupD1Ev @ 316 NONAME
	_ZThn24_N19CPhoneStateIncomingD0Ev @ 317 NONAME
	_ZThn24_N19CPhoneStateIncomingD1Ev @ 318 NONAME
	_ZThn24_N20CPhoneStateCallSetupD0Ev @ 319 NONAME
	_ZThn24_N20CPhoneStateCallSetupD1Ev @ 320 NONAME
	_ZThn28_NK11CPhoneState17GetBlockedKeyListEv @ 321 NONAME
	_ZThn32_N11CPhoneState25HandleNumberEntryClearedLEv @ 322 NONAME
	_ZThn32_N15CPhoneStateIdle25HandleNumberEntryClearedLEv @ 323 NONAME
	_ZThn32_N17CPhoneStateInCall25HandleNumberEntryClearedLEv @ 324 NONAME
	_ZThn32_N19CPhoneStateIncoming25HandleNumberEntryClearedLEv @ 325 NONAME
	_ZThn32_N20CPhoneStateCallSetup25HandleNumberEntryClearedLEv @ 326 NONAME
	_ZThn36_NK11CPhoneState11IsKeyLockOnEv @ 327 NONAME
	_ZThn36_NK11CPhoneState12IsAutoLockOnEv @ 328 NONAME
	_ZThn4_N11CPhoneState12HandleErrorLERK12TPEErrorInfo @ 329 NONAME
	_ZThn4_N11CPhoneState25HandlePhoneEngineMessageLEii @ 330 NONAME
	_ZThn4_N11CPhoneStateD0Ev @ 331 NONAME
	_ZThn4_N11CPhoneStateD1Ev @ 332 NONAME
	_ZThn4_N15CPhoneStateIdle25HandlePhoneEngineMessageLEii @ 333 NONAME
	_ZThn4_N15CPhoneStateIdleD0Ev @ 334 NONAME
	_ZThn4_N15CPhoneStateIdleD1Ev @ 335 NONAME
	_ZThn4_N17CPhoneStateInCall25HandlePhoneEngineMessageLEii @ 336 NONAME
	_ZThn4_N17CPhoneStateInCallD0Ev @ 337 NONAME
	_ZThn4_N17CPhoneStateInCallD1Ev @ 338 NONAME
	_ZThn4_N18CPhoneStateMachine11ChangeStateEi @ 339 NONAME
	_ZThn4_N18CPhoneStateMachine11PhoneEngineEv @ 340 NONAME
	_ZThn4_N18CPhoneStateMachine12PhoneStorageEv @ 341 NONAME
	_ZThn4_N18CPhoneStateMachine14SetPhoneEngineEP13MPEPhoneModel @ 342 NONAME
	_ZThn4_N18CPhoneStateMachine15PhoneEngineInfoEv @ 343 NONAME
	_ZThn4_N18CPhoneStateMachine18CreatePhoneEngineLER14MEngineMonitor @ 344 NONAME
	_ZThn4_N18CPhoneStateMachine22SendPhoneEngineMessageEi @ 345 NONAME
	_ZThn4_N18CPhoneStateMachine5StateEv @ 346 NONAME
	_ZThn4_N18CPhoneStateMachine9SetCallIdEi @ 347 NONAME
	_ZThn4_N18CPhoneStateMachineD0Ev @ 348 NONAME
	_ZThn4_N18CPhoneStateMachineD1Ev @ 349 NONAME
	_ZThn4_N18CPhoneStateStartup25HandlePhoneEngineMessageLEii @ 350 NONAME
	_ZThn4_N18CPhoneStateStartupD0Ev @ 351 NONAME
	_ZThn4_N18CPhoneStateStartupD1Ev @ 352 NONAME
	_ZThn4_N18CPhoneUIController11HandleErrorERK12TPEErrorInfo @ 353 NONAME
	_ZThn4_N18CPhoneUIController13HandleMessageEii @ 354 NONAME
	_ZThn4_N19CPhoneStateIncoming25HandlePhoneEngineMessageLEii @ 355 NONAME
	_ZThn4_N19CPhoneStateIncomingD0Ev @ 356 NONAME
	_ZThn4_N19CPhoneStateIncomingD1Ev @ 357 NONAME
	_ZThn4_N20CPhoneStateCallSetup25HandlePhoneEngineMessageLEii @ 358 NONAME
	_ZThn4_N20CPhoneStateCallSetupD0Ev @ 359 NONAME
	_ZThn4_N20CPhoneStateCallSetupD1Ev @ 360 NONAME
	_ZThn8_N11CPhoneState15HandleKeyEventLERK9TKeyEvent10TEventCode @ 361 NONAME
	_ZThn8_N11CPhoneState17HandleKeyMessageLEN15MPhoneKeyEvents22TPhoneKeyEventMessagesE8TKeyCode @ 362 NONAME
	_ZThn8_N11CPhoneState18HandleDtmfKeyToneLERK9TKeyEvent10TEventCode @ 363 NONAME
	_ZThn8_N11CPhoneState35IsAlphanumericSupportedAndCharInputERK9TKeyEvent @ 364 NONAME
	_ZThn8_N11CPhoneStateD0Ev @ 365 NONAME
	_ZThn8_N11CPhoneStateD1Ev @ 366 NONAME
	_ZThn8_N15CPhoneStateIdle15HandleKeyEventLERK9TKeyEvent10TEventCode @ 367 NONAME
	_ZThn8_N15CPhoneStateIdle17HandleKeyMessageLEN15MPhoneKeyEvents22TPhoneKeyEventMessagesE8TKeyCode @ 368 NONAME
	_ZThn8_N15CPhoneStateIdleD0Ev @ 369 NONAME
	_ZThn8_N15CPhoneStateIdleD1Ev @ 370 NONAME
	_ZThn8_N17CPhoneStateInCall17HandleKeyMessageLEN15MPhoneKeyEvents22TPhoneKeyEventMessagesE8TKeyCode @ 371 NONAME
	_ZThn8_N17CPhoneStateInCallD0Ev @ 372 NONAME
	_ZThn8_N17CPhoneStateInCallD1Ev @ 373 NONAME
	_ZThn8_N18CPhoneStateStartup15HandleKeyEventLERK9TKeyEvent10TEventCode @ 374 NONAME
	_ZThn8_N18CPhoneStateStartup17HandleKeyMessageLEN15MPhoneKeyEvents22TPhoneKeyEventMessagesE8TKeyCode @ 375 NONAME
	_ZThn8_N18CPhoneStateStartup18HandleDtmfKeyToneLERK9TKeyEvent10TEventCode @ 376 NONAME
	_ZThn8_N18CPhoneStateStartupD0Ev @ 377 NONAME
	_ZThn8_N18CPhoneStateStartupD1Ev @ 378 NONAME
	_ZThn8_N18CPhoneUIController15HandleKeyEventLERK9TKeyEvent10TEventCode @ 379 NONAME
	_ZThn8_N18CPhoneUIControllerD0Ev @ 380 NONAME
	_ZThn8_N18CPhoneUIControllerD1Ev @ 381 NONAME
	_ZThn8_N19CPhoneStateIncoming15HandleKeyEventLERK9TKeyEvent10TEventCode @ 382 NONAME
	_ZThn8_N19CPhoneStateIncoming17HandleKeyMessageLEN15MPhoneKeyEvents22TPhoneKeyEventMessagesE8TKeyCode @ 383 NONAME
	_ZThn8_N19CPhoneStateIncomingD0Ev @ 384 NONAME
	_ZThn8_N19CPhoneStateIncomingD1Ev @ 385 NONAME
	_ZThn8_N20CPhoneStateCallSetup15HandleKeyEventLERK9TKeyEvent10TEventCode @ 386 NONAME
	_ZThn8_N20CPhoneStateCallSetup17HandleKeyMessageLEN15MPhoneKeyEvents22TPhoneKeyEventMessagesE8TKeyCode @ 387 NONAME
	_ZThn8_N20CPhoneStateCallSetupD0Ev @ 388 NONAME
	_ZThn8_N20CPhoneStateCallSetupD1Ev @ 389 NONAME

