EXPORTS
	_ZN13PhoneUIQtView10captureKeyEN2Qt3KeyEb @ 1 NONAME
	_ZN13PhoneUIQtView10keyPressedEP9QKeyEvent @ 2 NONAME
	_ZN13PhoneUIQtView11dialpadTextEv @ 3 NONAME
	_ZN13PhoneUIQtView11hideDialpadEv @ 4 NONAME
	_ZN13PhoneUIQtView11hideToolbarEv @ 5 NONAME
	_ZN13PhoneUIQtView11keyReleasedEP9QKeyEvent @ 6 NONAME
	_ZN13PhoneUIQtView11qt_metacallEN11QMetaObject4CallEiPPv @ 7 NONAME
	_ZN13PhoneUIQtView11qt_metacastEPKc @ 8 NONAME
	_ZN13PhoneUIQtView11showDialpadEv @ 9 NONAME
	_ZN13PhoneUIQtView11showToolbarEv @ 10 NONAME
	_ZN13PhoneUIQtView12clearDialpadEv @ 11 NONAME
	_ZN13PhoneUIQtView13bubbleManagerEv @ 12 NONAME
	_ZN13PhoneUIQtView13menuReferenceEv @ 13 NONAME
	_ZN13PhoneUIQtView14setMenuActionsERK5QListIP8HbActionE @ 14 NONAME
	_ZN13PhoneUIQtView15setExpandActionEii @ 15 NONAME
	_ZN13PhoneUIQtView15windowActivatedEv @ 16 NONAME
	_ZN13PhoneUIQtView16addBubbleCommandEiP8HbAction @ 17 NONAME
	_ZN13PhoneUIQtView16isDialpadVisibleEv @ 18 NONAME
	_ZN13PhoneUIQtView16staticMetaObjectE @ 19 NONAME DATA 16
	_ZN13PhoneUIQtView17bringToForegroundEv @ 20 NONAME
	_ZN13PhoneUIQtView17setRestrictedModeEb @ 21 NONAME
	_ZN13PhoneUIQtView17setToolbarActionsERK5QListIP8HbActionE @ 22 NONAME
	_ZN13PhoneUIQtView17volumeSliderValueEv @ 23 NONAME
	_ZN13PhoneUIQtView17windowDeactivatedEv @ 24 NONAME
	_ZN13PhoneUIQtView18removeExpandActionEi @ 25 NONAME
	_ZN13PhoneUIQtView19clearAndHideDialpadEv @ 26 NONAME
	_ZN13PhoneUIQtView19clearBubbleCommandsEi @ 27 NONAME
	_ZN13PhoneUIQtView19getStaticMetaObjectEv @ 28 NONAME
	_ZN13PhoneUIQtView20setBackButtonVisibleEb @ 29 NONAME
	_ZN13PhoneUIQtView20setVolumeSliderValueEiiii @ 30 NONAME
	_ZN13PhoneUIQtView21dialpadIsAboutToCloseEv @ 31 NONAME
	_ZN13PhoneUIQtView23handleOrientationChangeEN2Qt11OrientationE @ 32 NONAME
	_ZN13PhoneUIQtView24addParticipantListActionEiRK7QStringRK6HbIcon @ 33 NONAME
	_ZN13PhoneUIQtView27clearParticipantListActionsEv @ 34 NONAME
	_ZN13PhoneUIQtView4hideEv @ 35 NONAME
	_ZN13PhoneUIQtView7commandEi @ 36 NONAME
	_ZN13PhoneUIQtViewC2ER12HbMainWindowP13QGraphicsItem @ 37 NONAME
	_ZN13PhoneUIQtViewD0Ev @ 38 NONAME
	_ZN13PhoneUIQtViewD1Ev @ 39 NONAME
	_ZN13PhoneUIQtViewD2Ev @ 40 NONAME
	_ZNK13PhoneUIQtView10metaObjectEv @ 41 NONAME
	_ZTI13PhoneUIQtView @ 42 NONAME
	_ZTV13PhoneUIQtView @ 43 NONAME
	_ZThn16_N13PhoneUIQtViewD0Ev @ 44 NONAME
	_ZThn16_N13PhoneUIQtViewD1Ev @ 45 NONAME
	_ZThn28_N13PhoneUIQtView10captureKeyEN2Qt3KeyEb @ 46 NONAME
	_ZThn28_N13PhoneUIQtView11dialpadTextEv @ 47 NONAME
	_ZThn28_N13PhoneUIQtView11hideDialpadEv @ 48 NONAME
	_ZThn28_N13PhoneUIQtView11hideToolbarEv @ 49 NONAME
	_ZThn28_N13PhoneUIQtView11showDialpadEv @ 50 NONAME
	_ZThn28_N13PhoneUIQtView11showToolbarEv @ 51 NONAME
	_ZThn28_N13PhoneUIQtView12clearDialpadEv @ 52 NONAME
	_ZThn28_N13PhoneUIQtView13bubbleManagerEv @ 53 NONAME
	_ZThn28_N13PhoneUIQtView13menuReferenceEv @ 54 NONAME
	_ZThn28_N13PhoneUIQtView14setMenuActionsERK5QListIP8HbActionE @ 55 NONAME
	_ZThn28_N13PhoneUIQtView15setExpandActionEii @ 56 NONAME
	_ZThn28_N13PhoneUIQtView16addBubbleCommandEiP8HbAction @ 57 NONAME
	_ZThn28_N13PhoneUIQtView16isDialpadVisibleEv @ 58 NONAME
	_ZThn28_N13PhoneUIQtView17bringToForegroundEv @ 59 NONAME
	_ZThn28_N13PhoneUIQtView17setRestrictedModeEb @ 60 NONAME
	_ZThn28_N13PhoneUIQtView17setToolbarActionsERK5QListIP8HbActionE @ 61 NONAME
	_ZThn28_N13PhoneUIQtView17volumeSliderValueEv @ 62 NONAME
	_ZThn28_N13PhoneUIQtView18removeExpandActionEi @ 63 NONAME
	_ZThn28_N13PhoneUIQtView19clearAndHideDialpadEv @ 64 NONAME
	_ZThn28_N13PhoneUIQtView19clearBubbleCommandsEi @ 65 NONAME
	_ZThn28_N13PhoneUIQtView20setBackButtonVisibleEb @ 66 NONAME
	_ZThn28_N13PhoneUIQtView20setVolumeSliderValueEiiii @ 67 NONAME
	_ZThn28_N13PhoneUIQtView24addParticipantListActionEiRK7QStringRK6HbIcon @ 68 NONAME
	_ZThn28_N13PhoneUIQtView27clearParticipantListActionsEv @ 69 NONAME
	_ZThn28_N13PhoneUIQtView4hideEv @ 70 NONAME
	_ZThn8_N13PhoneUIQtViewD0Ev @ 71 NONAME
	_ZThn8_N13PhoneUIQtViewD1Ev @ 72 NONAME
	_ZN13PhoneUIQtView16shutdownPhoneAppEv @ 73 NONAME
	_ZN13PhoneUIQtView18removeVolumeSliderEv @ 74 NONAME
	_ZN13PhoneUIQtViewC1ER12HbMainWindowP13QGraphicsItem @ 75 NONAME
	_ZThn28_N13PhoneUIQtView16shutdownPhoneAppEv @ 76 NONAME
	_ZThn28_N13PhoneUIQtView18removeVolumeSliderEv @ 77 NONAME

